(dp1
S'AGN'
p2
(dp3
S'Quarterly_Growth'
p4
NsS'Return_Assets'
p5
F-0.46000000000000002
sS'Profit_Margin'
p6
F82.420000000000002
sS'Operating_Cash'
p7
NsS'Beta'
p8
F1.25
sS'Debt_Equity'
p9
F42.219999999999999
sS'Current_Ratio'
p10
F1.3200000000000001
sS'Price_Earnings_Growth'
p11
F1.1599999999999999
ssS'EOG'
p12
(dp13
g4
Nsg5
F-1.45
sg6
F-6.7999999999999998
sg7
F2.9700000000000002
sg8
F0.90000000000000002
sg9
F50.159999999999997
sg10
F1.6699999999999999
sg11
F0.32000000000000001
ssS'CPB'
p14
(dp15
g4
Nsg5
Nsg6
Nsg7
Nsg8
Nsg9
Nsg10
Nsg11
NssS'EVHC'
p16
(dp17
g4
Nsg5
F3.7000000000000002
sg6
F-10.199999999999999
sg7
Nsg8
F0.32000000000000001
sg9
F81.790000000000006
sg10
F3.1200000000000001
sg11
NssS'IDXX'
p18
(dp19
g4
Nsg5
F15.15
sg6
F13.470000000000001
sg7
Nsg8
F0.48999999999999999
sg9
Nsg10
F0.93999999999999995
sg11
F3.04
ssS'QRVO'
p20
(dp21
g4
Nsg5
F1.02
sg6
F-0.55000000000000004
sg7
Nsg8
Nsg9
F20.199999999999999
sg10
F3.4900000000000002
sg11
F0.76000000000000001
ssS'JWN'
p22
(dp23
g4
Nsg5
F8.4600000000000009
sg6
F2.5
sg7
F1.5600000000000001
sg8
F0.66000000000000003
sg9
F405.01999999999998
sg10
F1.01
sg11
F2.4399999999999999
ssS'JBHT'
p24
(dp25
g4
Nsg5
F11.84
sg6
F6.5300000000000002
sg7
Nsg8
F1.1599999999999999
sg9
F69.5
sg10
F1.52
sg11
F1.9399999999999999
ssS'TAP'
p26
(dp27
g4
Nsg5
F2.3500000000000001
sg6
F30.170000000000002
sg7
F1.1000000000000001
sg8
F0.63
sg9
F104.03
sg10
F0.75
sg11
NssS'VRTX'
p28
(dp29
g4
Nsg5
F7.0300000000000002
sg6
F8.7799999999999994
sg7
Nsg8
F1.9199999999999999
sg9
F32.590000000000003
sg10
F3.8199999999999998
sg11
F1.25
ssS'BWA'
p30
(dp31
g4
Nsg5
F7.9199999999999999
sg6
F1.5600000000000001
sg7
F1.0600000000000001
sg8
F1.8999999999999999
sg9
F65.959999999999994
sg10
F1.4399999999999999
sg11
F1.9399999999999999
ssS'UAL'
p32
(dp33
g4
Nsg5
F6.8200000000000003
sg6
F5.5599999999999996
sg7
F4.8899999999999997
sg8
F1.03
sg9
F152.00999999999999
sg10
F0.60999999999999999
sg11
F1.6699999999999999
ssS'UAA'
p34
(dp35
g4
Nsg5
F7.1799999999999997
sg6
F4.8099999999999996
sg7
Nsg8
F-0.050000000000000003
sg9
F42.630000000000003
sg10
F3.04
sg11
F4.5300000000000002
ssS'WM'
p36
(dp37
g4
Nsg5
F7.4199999999999999
sg6
F8.8100000000000005
sg7
F2.9500000000000002
sg8
F0.65000000000000002
sg9
F163.27000000000001
sg10
F0.87
sg11
F2.23
ssS'SPG'
p38
(dp39
g4
Nsg5
F5.4400000000000004
sg6
F33.719999999999999
sg7
F3.4399999999999999
sg8
F0.63
sg9
F472.82999999999998
sg10
F0.25
sg11
F2.7000000000000002
ssS'FIS'
p40
(dp41
g4
Nsg5
F4.0199999999999996
sg6
F6.9900000000000002
sg7
F1.99
sg8
F0.81000000000000005
sg9
F95.140000000000001
sg10
F1.0900000000000001
sg11
F1.6100000000000001
ssS'GT'
p42
(dp43
g4
Nsg5
F6.5700000000000003
sg6
F8.2200000000000006
sg7
F1.5900000000000001
sg8
F1.78
sg9
F119.62
sg10
F1.29
sg11
F1.4099999999999999
ssS'GIS'
p44
(dp45
g4
Nsg5
F8.1799999999999997
sg6
F10.609999999999999
sg7
F2.3100000000000001
sg8
F0.54000000000000004
sg9
F169.43000000000001
sg10
F0.76000000000000001
sg11
F2.98
ssS'PYPL'
p46
(dp47
g4
Nsg5
F3.2799999999999998
sg6
F12.6
sg7
F3.1699999999999999
sg8
Nsg9
Nsg10
F1.47
sg11
F1.77
ssS'MJN'
p48
(dp49
g4
Nsg5
Nsg6
Nsg7
Nsg8
Nsg9
Nsg10
Nsg11
NssS'WRK'
p50
(dp51
g4
Nsg5
F2.8700000000000001
sg6
F1.29
sg7
F1.73
sg8
F1.73
sg9
F58.079999999999998
sg10
F2.1499999999999999
sg11
F2.1899999999999999
ssS'ROP'
p52
(dp53
g4
Nsg5
F5.5
sg6
F16.739999999999998
sg7
F1.1299999999999999
sg8
F1.3400000000000001
sg9
F97.819999999999993
sg10
F1.1100000000000001
sg11
F1.73
ssS'GE'
p54
(dp55
g4
Nsg5
F1.6899999999999999
sg6
F7.7199999999999998
sg7
Nsg8
F1.1100000000000001
sg9
F162.40000000000001
sg10
F2.1200000000000001
sg11
F1.3799999999999999
ssS'GD'
p56
(dp57
g4
Nsg5
F8.5099999999999998
sg6
F9.8300000000000001
sg7
F2.2000000000000002
sg8
F0.89000000000000001
sg9
F36.75
sg10
F1.26
sg11
F2.6800000000000002
ssS'VAR'
p58
(dp59
g4
Nsg5
F9.6999999999999993
sg6
F9
sg7
Nsg8
F0.85999999999999999
sg9
F42.280000000000001
sg10
F1.52
sg11
F2.6400000000000001
ssS'GM'
p60
(dp61
g4
Nsg5
F3
sg6
F5.9199999999999999
sg7
F18.690000000000001
sg8
F1.6399999999999999
sg9
F196.69999999999999
sg10
F0.88
sg11
F-1.28
ssS'NTAP'
p62
(dp63
g4
Nsg5
F4.5300000000000002
sg6
F9.2200000000000006
sg7
Nsg8
F1.5
sg9
F76.370000000000005
sg10
F1.5
sg11
F0.87
ssS'MAS'
p64
(dp65
g4
Nsg5
F11.460000000000001
sg6
F7.04
sg7
Nsg8
F1.47
sg9
Nsg10
F2.0800000000000001
sg11
F1.2
ssS'MAR'
p66
(dp67
g4
Nsg5
F8.1999999999999993
sg6
F23.039999999999999
sg7
F1.71
sg8
F1.3500000000000001
sg9
F163.88999999999999
sg10
F0.59999999999999998
sg11
F1.8100000000000001
ssS'MAT'
p68
(dp69
g4
Nsg5
F4.9900000000000002
sg6
F5.2199999999999998
sg7
Nsg8
F0.73999999999999999
sg9
F104.47
sg10
F1.6899999999999999
sg11
F2.4900000000000002
ssS'SNA'
p70
(dp71
g4
Nsg5
F11.74
sg6
F14.83
sg7
Nsg8
F1.04
sg9
F36.969999999999999
sg10
F2.0299999999999998
sg11
NssS'FOXA'
p72
(dp73
g4
Nsg5
F8.0899999999999999
sg6
F10.720000000000001
sg7
F3.4300000000000002
sg8
F1.46
sg9
F117.93000000000001
sg10
F2.2400000000000002
sg11
F1.26
ssS'SNI'
p74
(dp75
g4
Nsg5
F13.390000000000001
sg6
F16.940000000000001
sg7
Nsg8
F1.3600000000000001
sg9
F125.91
sg10
F2.3900000000000001
sg11
F1.1200000000000001
ssS'XRAY'
p76
(dp77
g4
Nsg5
F2.7799999999999998
sg6
F9.4199999999999999
sg7
Nsg8
F1.4399999999999999
sg9
F19
sg10
F2.2999999999999998
sg11
F2.7799999999999998
ssS'MAC'
p78
(dp79
g4
Nsg5
F1.9099999999999999
sg6
F15.31
sg7
Nsg8
F0.66000000000000003
sg9
F114.70999999999999
sg10
F0.68000000000000005
sg11
F-551.26999999999998
ssS'JNJ'
p80
(dp81
g4
Nsg5
F9.4900000000000002
sg6
F22.870000000000001
sg7
F19.489999999999998
sg8
F0.68000000000000005
sg9
F46.509999999999998
sg10
F2.52
sg11
F2.9100000000000001
ssS'XYL'
p82
(dp83
g4
Nsg5
F5.1399999999999997
sg6
F6.2599999999999998
sg7
Nsg8
F1.1200000000000001
sg9
F105.25
sg10
F1.5600000000000001
sg11
F1.6599999999999999
ssS'TSN'
p84
(dp85
g4
Nsg5
F8.5
sg6
F4.9100000000000001
sg7
F2.5899999999999999
sg8
F0.29999999999999999
sg9
F65.870000000000005
sg10
F1.6200000000000001
sg11
F2.1600000000000001
ssS'SYMC'
p86
(dp87
g4
Nsg5
F0.81999999999999995
sg6
F-2.6400000000000001
sg7
Nsg8
F1.02
sg9
F234.75999999999999
sg10
F1.1499999999999999
sg11
F0.71999999999999997
ssS'BEN'
p88
(dp89
g4
Nsg5
F8.7400000000000002
sg6
F27.77
sg7
F1.9099999999999999
sg8
F1.6299999999999999
sg9
F11.890000000000001
sg10
F12.94
sg11
F-10.199999999999999
ssS'CMI'
p90
(dp91
g4
Nsg5
F7.46
sg6
F8.25
sg7
F2.0499999999999998
sg8
F0.94999999999999996
sg9
F26.02
sg10
F1.75
sg11
NssS'DISCA'
p92
(dp93
g4
Nsg5
F8.4600000000000009
sg6
F17.5
sg7
F1.5700000000000001
sg8
F1.6000000000000001
sg9
F145.09
sg10
F1.6899999999999999
sg11
F1
ssS'CMG'
p94
(dp95
g4
Nsg5
F5.3399999999999999
sg6
F2.3100000000000001
sg7
Nsg8
F0.10000000000000001
sg9
Nsg10
F2.1699999999999999
sg11
F0.32000000000000001
ssS'ALB'
p96
(dp97
g4
Nsg5
F3.9500000000000002
sg6
F17.02
sg7
Nsg8
F2.3300000000000001
sg9
F45.270000000000003
sg10
F1.98
sg11
F2.73
ssS'CME'
p98
(dp99
g4
Nsg5
F1.9299999999999999
sg6
F43.619999999999997
sg7
F1.7
sg8
F0.73999999999999999
sg9
F10.859999999999999
sg10
F1.03
sg11
F2.9100000000000001
ssS'CMA'
p100
(dp101
g4
Nsg5
F0.87
sg6
F22.25
sg7
Nsg8
F1.5
sg9
Nsg10
Nsg11
F0.75
ssS'CMS'
p102
(dp103
g4
Nsg5
F4.0899999999999999
sg6
F9.1199999999999992
sg7
F1.6399999999999999
sg8
F0.13
sg9
F227.93000000000001
sg10
F1.1499999999999999
sg11
F2.8100000000000001
ssS'PCG'
p104
(dp105
g4
Nsg5
F2.98
sg6
F10.369999999999999
sg7
F4.9000000000000004
sg8
F0.14999999999999999
sg9
F98.230000000000004
sg10
F0.92000000000000004
sg11
F4.25
ssS'VLO'
p106
(dp107
g4
Nsg5
F4.54
sg6
F2.75
sg7
F5.1699999999999999
sg8
F1.03
sg9
F41.109999999999999
sg10
F2.0099999999999998
sg11
F0.63
ssS'HUM'
p108
(dp109
g4
Nsg5
F4.3799999999999999
sg6
F2.71
sg7
F5.6399999999999997
sg8
F0.78000000000000003
sg9
F53.039999999999999
sg10
F1.6499999999999999
sg11
F1.6499999999999999
ssS'PCLN'
p110
(dp111
g4
Nsg5
F11.93
sg6
F20.120000000000001
sg7
F3.96
sg8
F1.5
sg9
F76.629999999999995
sg10
F2.1499999999999999
sg11
F1.4299999999999999
ssS'TGNA'
p112
(dp113
g4
Nsg5
F7.0599999999999996
sg6
F12.25
sg7
Nsg8
F1.6000000000000001
sg9
F151.19999999999999
sg10
F1.24
sg11
F1.0600000000000001
ssS'FSLR'
p114
(dp115
g4
Nsg5
F1.52
sg6
F-18.350000000000001
sg7
Nsg8
F1.29
sg9
F7.3899999999999997
sg10
F6.3200000000000003
sg11
F-1.72
ssS'HCP'
p116
(dp117
g4
Nsg5
F2.4700000000000002
sg6
F46.299999999999997
sg7
F1.1399999999999999
sg8
F0.64000000000000001
sg9
F131.94999999999999
sg10
F6.1399999999999997
sg11
F9.4600000000000009
ssS'FTR'
p118
(dp119
g4
Nsg5
F3.5800000000000001
sg6
F-2.6499999999999999
sg7
F2.02
sg8
F0.44
sg9
F413.51999999999998
sg10
F0.67000000000000004
sg11
F-0.65000000000000002
ssS'FTV'
p120
(dp121
g4
Nsg5
F10.52
sg6
F14.16
sg7
F1.1100000000000001
sg8
Nsg9
F112.81999999999999
sg10
F1.8
sg11
F2.6499999999999999
ssS'K'
(dp122
g4
Nsg5
F7.0599999999999996
sg6
F6.0700000000000003
sg7
F1.8300000000000001
sg8
F0.35999999999999999
sg9
F397.81999999999999
sg10
F0.67000000000000004
sg11
F2.9700000000000002
ssS'FFIV'
p123
(dp124
g4
Nsg5
F15.59
sg6
F18.870000000000001
sg7
Nsg8
F1.0600000000000001
sg9
Nsg10
F1.5800000000000001
sg11
F1.4299999999999999
ssS'BLL'
p125
(dp126
g4
Nsg5
F4.3700000000000001
sg6
F4.6799999999999997
sg7
Nsg8
F0.98999999999999999
sg9
F214.15000000000001
sg10
F1.29
sg11
F1.75
ssS'HCA'
p127
(dp128
g4
Nsg5
F11.57
sg6
F6.8200000000000003
sg7
F5.5300000000000002
sg8
F0.11
sg9
Nsg10
F1.6499999999999999
sg11
F1.0800000000000001
ssS'BLK'
p129
(dp130
g4
Nsg5
F1.3200000000000001
sg6
F29.739999999999998
sg7
F2.5299999999999998
sg8
F1.73
sg9
F19.039999999999999
sg10
F1.1899999999999999
sg11
F1.53
ssS'FTI'
p131
(dp132
g4
Nsg5
F2.02
sg6
F3.4900000000000002
sg7
Nsg8
F0.89000000000000001
sg9
F26.420000000000002
sg10
F1.2
sg11
NssS'HCN'
p133
(dp134
g4
Nsg5
F2.5899999999999999
sg6
F29.719999999999999
sg7
F1.6299999999999999
sg8
F0.48999999999999999
sg9
F73.920000000000002
sg10
F1.47
sg11
F12.68
ssS'SIG'
p135
(dp136
g4
Nsg5
F6.6900000000000004
sg6
F7.29
sg7
Nsg8
F0.55000000000000004
sg9
F45.729999999999997
sg10
F4.4400000000000004
sg11
F1.8999999999999999
ssS'NFX'
p137
(dp138
g4
Nsg5
F3.1099999999999999
sg6
F-28.600000000000001
sg7
Nsg8
F1.4399999999999999
sg9
F221.09
sg10
F1.48
sg11
F0.35999999999999999
ssS'MA'
p139
(dp140
g4
Nsg5
F21.940000000000001
sg6
F37.789999999999999
sg7
F4.1699999999999999
sg8
F1.1699999999999999
sg9
F92.510000000000005
sg10
F1.8200000000000001
sg11
F1.8600000000000001
ssS'CBG'
p141
(dp142
g4
Nsg5
F5.5800000000000001
sg6
F4.6900000000000004
sg7
Nsg8
F2.1899999999999999
sg9
F102.53
sg10
F1.22
sg11
F1.4199999999999999
ssS'PRGO'
p143
(dp144
g4
Nsg5
F2.4500000000000002
sg6
F-66.549999999999997
sg7
Nsg8
F0.60999999999999999
sg9
F95.5
sg10
F2.0600000000000001
sg11
F2.9100000000000001
ssS'MO'
p145
(dp146
g4
Nsg5
F14.720000000000001
sg6
F74.359999999999999
sg7
F3.7400000000000002
sg8
F0.51000000000000001
sg9
F112.87
sg10
F0.92000000000000004
sg11
F2.8799999999999999
ssS'NOC'
p147
(dp148
g4
Nsg5
F8.3200000000000003
sg6
F9.1999999999999993
sg7
F2.4300000000000002
sg8
F0.65000000000000002
sg9
F127.02
sg10
F1.27
sg11
F2.8100000000000001
ssS'MU'
p149
(dp150
g4
Nsg5
F7.2999999999999998
sg6
F14.66
sg7
F5.8499999999999996
sg8
F2
sg9
F68.579999999999998
sg10
F2.1299999999999999
sg11
F6.5199999999999996
ssS'CBS'
p151
(dp152
g4
Nsg5
F7.5499999999999998
sg6
F4.1500000000000004
sg7
F1.3799999999999999
sg8
F1.52
sg9
F310.32999999999998
sg10
F1.6399999999999999
sg11
F0.85999999999999999
ssS'NDAQ'
p153
(dp154
g4
Nsg5
F4.4699999999999998
sg6
F3.8399999999999999
sg7
Nsg8
F0.60999999999999999
sg9
F67.659999999999997
sg10
F1.01
sg11
F1.8
ssS'UHS'
p155
(dp156
g4
Nsg5
F7.9900000000000002
sg6
F7.2300000000000004
sg7
F1.3
sg8
F0.82999999999999996
sg9
F81.049999999999997
sg10
F1.1399999999999999
sg11
F1.76
ssS'MS'
p157
(dp158
g4
Nsg5
F0.84999999999999998
sg6
F18.52
sg7
F-3.3399999999999999
sg8
F1.5
sg9
F364.14999999999998
sg10
F1.26
sg11
F0.98999999999999999
ssS'TJX'
p159
(dp160
g4
Nsg5
F19.699999999999999
sg6
F6.96
sg7
F3.6099999999999999
sg8
F0.56000000000000005
sg9
F48.939999999999998
sg10
F1.6399999999999999
sg11
F1.71
ssS'NOV'
p161
(dp162
g4
Nsg5
F-3.6899999999999999
sg6
F-35.5
sg7
Nsg8
F0.89000000000000001
sg9
F22.98
sg10
F2.71
sg11
F-0.67000000000000004
ssS'AMGN'
p163
(dp164
g4
Nsg5
F8.1600000000000001
sg6
F34.420000000000002
sg7
F10.82
sg8
F1.76
sg9
F111.28
sg10
F4.4100000000000001
sg11
F3.3399999999999999
ssS'FB'
p165
(dp166
g4
Nsg5
F14.380000000000001
sg6
F38.109999999999999
sg7
F17.690000000000001
sg8
F0.45000000000000001
sg9
Nsg10
F12.609999999999999
sg11
F1.22
ssS'COST'
p167
(dp168
g4
Nsg5
F6.9299999999999997
sg6
F2.0600000000000001
sg7
F4.7199999999999998
sg8
F0.95999999999999996
sg9
F39.07
sg10
F0.81000000000000005
sg11
F2.75
ssS'FE'
p169
(dp170
g4
Nsg5
F2.9199999999999999
sg6
F-45.5
sg7
F3.5099999999999998
sg8
F0.23999999999999999
sg9
F369.10000000000002
sg10
F0.35999999999999999
sg11
F-2.4900000000000002
ssS'CTL'
p171
(dp172
g4
Nsg5
F3.4500000000000002
sg6
F3.2000000000000002
sg7
F4.2400000000000002
sg8
F0.81999999999999995
sg9
F147.90000000000001
sg10
F0.97999999999999998
sg11
F-3.75
ssS'DPS'
p173
(dp174
g4
Nsg5
F9.5199999999999996
sg6
F13.029999999999999
sg7
Nsg8
F0.54000000000000004
sg9
F204.50999999999999
sg10
F1.0900000000000001
sg11
F2.2400000000000002
ssS'FL'
p175
(dp176
g4
Nsg5
F15.949999999999999
sg6
F8.3900000000000006
sg7
Nsg8
F0.31
sg9
F4.5
sg10
F4.9000000000000004
sg11
F1.3
ssS'DOW'
p177
(dp178
g4
Nsg5
F5.0499999999999998
sg6
F9.7699999999999996
sg7
F5.8200000000000003
sg8
F1.4399999999999999
sg9
F75.790000000000006
sg10
F1.8700000000000001
sg11
F2.2599999999999998
ssS'MSFT'
p179
(dp180
g4
Nsg5
F6.5099999999999998
sg6
F20.420000000000002
sg7
F36.969999999999999
sg8
F1.3999999999999999
sg9
F123.33
sg10
F2.8100000000000001
sg11
F2.4100000000000001
ssS'GLW'
p181
(dp182
g4
Nsg5
F3.4100000000000001
sg6
F42.689999999999998
sg7
F2.79
sg8
F1.24
sg9
F21.390000000000001
sg10
F3.6000000000000001
sg11
F1.8600000000000001
ssS'SCHW'
p183
(dp184
g4
Nsg5
F0.97999999999999998
sg6
F26.239999999999998
sg7
F2.7000000000000002
sg8
F1.79
sg9
F24.25
sg10
F0.32000000000000001
sg11
F1.3400000000000001
ssS'BSX'
p185
(dp186
g4
Nsg5
F4.9299999999999997
sg6
F5.0700000000000003
sg7
Nsg8
F0.93999999999999995
sg9
F78.180000000000007
sg10
F0.87
sg11
F2.2200000000000002
ssS'GGP'
p187
(dp188
g4
Nsg5
F2.9199999999999999
sg6
F47.469999999999999
sg7
F1.1299999999999999
sg8
F0.76000000000000001
sg9
F144.71000000000001
sg10
F1.6899999999999999
sg11
F8.2799999999999994
ssS'FCX'
p189
(dp190
g4
Nsg5
F2.6499999999999999
sg6
F1.73
sg7
F3.7799999999999998
sg8
F3.04
sg9
F160.25
sg10
F2.02
sg11
F0.23000000000000001
ssS'UPS'
p191
(dp192
g4
Nsg5
F8.7599999999999998
sg6
F5.5899999999999999
sg7
F4.04
sg8
F0.85999999999999999
sg9
Nsg10
F1.01
sg11
F2.23
ssS'WHR'
p193
(dp194
g4
Nsg5
F4.7800000000000002
sg6
F4.2699999999999996
sg7
F1.4299999999999999
sg8
F1.75
sg9
F87.150000000000006
sg10
F0.96999999999999997
sg11
F0.94999999999999996
ssS'BBBY'
p195
(dp196
g4
Nsg5
F9.9299999999999997
sg6
F5.2199999999999998
sg7
F1.04
sg8
F0.76000000000000001
sg9
F55.810000000000002
sg10
F1.72
sg11
F2.8199999999999998
ssS'MDT'
p197
(dp198
g4
Nsg5
F3.9500000000000002
sg6
F13.56
sg7
F6.8799999999999999
sg8
F0.84999999999999998
sg9
F66.349999999999994
sg10
F1.75
sg11
F2.4100000000000001
ssS'F'
(dp199
g4
Nsg5
F0.91000000000000003
sg6
F2.4300000000000002
sg7
F19.98
sg8
F1.3300000000000001
sg9
F474.91000000000003
sg10
F1.24
sg11
F-0.63
ssS'DFS'
p200
(dp201
g4
Nsg5
F2.6000000000000001
sg6
F33.119999999999997
sg7
F4.2800000000000002
sg8
F1.5600000000000001
sg9
F238.19
sg10
F1.49
sg11
F1.1699999999999999
ssS'JEC'
p202
(dp203
g4
Nsg5
F4.3200000000000003
sg6
F2.0499999999999998
sg7
Nsg8
F1.6100000000000001
sg9
F8.0899999999999999
sg10
F1.6299999999999999
sg11
NssS'ILMN'
p204
(dp205
g4
Nsg5
F7.9400000000000004
sg6
F30.510000000000002
sg7
Nsg8
F1.0900000000000001
sg9
F40.460000000000001
sg10
F3.4900000000000002
sg11
F3.46
ssS'V'
(dp206
g4
Nsg5
F12.029999999999999
sg6
F28.780000000000001
sg7
F5.6600000000000001
sg8
F1.0800000000000001
sg9
F51.609999999999999
sg10
F1.52
sg11
F1.6399999999999999
ssS'FMC'
p207
(dp208
g4
Nsg5
F5.8300000000000001
sg6
F1.1200000000000001
sg7
Nsg8
F1.9099999999999999
sg9
F106.15000000000001
sg10
F2.3900000000000001
sg11
F2.6899999999999999
ssS'AVY'
p209
(dp210
g4
Nsg5
F8.4199999999999999
sg6
F5.5599999999999996
sg7
Nsg8
F1.27
sg9
F156.06
sg10
F1.24
sg11
F1.72
ssS'TSCO'
p211
(dp212
g4
Nsg5
F15.449999999999999
sg6
F6.25
sg7
Nsg8
F1.1599999999999999
sg9
F46.270000000000003
sg10
F2.23
sg11
F1.04
ssS'ALL'
p213
(dp214
g4
Nsg5
F2.1699999999999999
sg6
F6.2699999999999996
sg7
F4.1399999999999997
sg8
F1
sg9
F29.989999999999998
sg10
F0.46999999999999997
sg11
F0.93999999999999995
ssS'ALK'
p215
(dp216
g4
Nsg5
F10.08
sg6
F11.51
sg7
F1.3300000000000001
sg8
F0.70999999999999996
sg9
F94.989999999999995
sg10
F0.78000000000000003
sg11
F1.1499999999999999
ssS'LMT'
p217
(dp218
g4
Nsg5
F6.3499999999999996
sg6
F10.779999999999999
sg7
F5.1900000000000004
sg8
F0.58999999999999997
sg9
F900.69000000000005
sg10
F1.22
sg11
F3.8500000000000001
ssS'MMM'
p219
(dp220
g4
Nsg5
F13.6
sg6
F16.780000000000001
sg7
F6.3899999999999997
sg8
F0.94999999999999996
sg9
F106.12
sg10
F1.99
sg11
F2.5099999999999998
ssS'SO'
p221
(dp222
g4
Nsg5
F3.3900000000000001
sg6
F12.07
sg7
F4.9100000000000001
sg8
F0.059999999999999998
sg9
F179.16999999999999
sg10
F0.68999999999999995
sg11
F4.0800000000000001
ssS'JNPR'
p223
(dp224
g4
Nsg5
F6.2800000000000002
sg6
F11.93
sg7
F1.48
sg8
F1.4399999999999999
sg9
F42.530000000000001
sg10
F2.52
sg11
F1.03
ssS'MMC'
p225
(dp226
g4
Nsg5
F9.2300000000000004
sg6
F13.869999999999999
sg7
F2.1899999999999999
sg8
F1.03
sg9
F89
sg10
F1.3899999999999999
sg11
F1.8899999999999999
ssS'WEC'
p227
(dp228
g4
Nsg5
F3.6200000000000001
sg6
F12.52
sg7
F2.1200000000000001
sg8
F0.02
sg9
F108.91
sg10
F0.90000000000000002
sg11
F3.5099999999999998
ssS'SWKS'
p229
(dp230
g4
Nsg5
F17.52
sg6
F27.27
sg7
F1.3300000000000001
sg8
F0.70999999999999996
sg9
Nsg10
F8.6500000000000004
sg11
F1
ssS'ADBE'
p231
(dp232
g4
Nsg5
F8.8599999999999994
sg6
F22.109999999999999
sg7
F2.5899999999999999
sg8
F0.98999999999999999
sg9
F24.199999999999999
sg10
F1.99
sg11
F1.27
ssS'IBM'
p233
(dp234
g4
Nsg5
F7.1299999999999999
sg6
F14.619999999999999
sg7
F15.380000000000001
sg8
F0.90000000000000002
sg9
F231.93000000000001
sg10
F1.1799999999999999
sg11
F4.4400000000000004
ssS'BAX'
p235
(dp236
g4
Nsg5
F5.2199999999999998
sg6
F18.09
sg7
F2.1800000000000002
sg8
F0.78000000000000003
sg9
F32.130000000000003
sg10
F2.7200000000000002
sg11
F2.0499999999999998
ssS'CAT'
p237
(dp238
g4
Nsg5
F1.9199999999999999
sg6
F-0.37
sg7
F6.6600000000000001
sg8
F1.6399999999999999
sg9
F280.25999999999999
sg10
F1.29
sg11
F0.81000000000000005
ssS'CAH'
p239
(dp240
g4
Nsg5
F4.3899999999999997
sg6
F1.05
sg7
F1.1000000000000001
sg8
F0.89000000000000001
sg9
F80.519999999999996
sg10
F1.1299999999999999
sg11
F2.9300000000000002
ssS'BAC'
p241
(dp242
g4
Nsg5
F0.87
sg6
F23.600000000000001
sg7
F-5.4400000000000004
sg8
F1.6100000000000001
sg9
Nsg10
Nsg11
F1.21
ssS'GS'
p243
(dp244
g4
Nsg5
F0.95999999999999996
sg6
F26.370000000000001
sg7
F4.75
sg8
F1.3899999999999999
sg9
F452.32999999999998
sg10
F1.8
sg11
F1.01
ssS'CAG'
p245
(dp246
g4
Nsg5
F5.0499999999999998
sg6
F8.1699999999999999
sg7
F1.1799999999999999
sg8
F0.31
sg9
F73.480000000000004
sg10
F1.1699999999999999
sg11
F1.6399999999999999
ssS'LB'
p247
(dp248
g4
Nsg5
F15.42
sg6
F8.8699999999999992
sg7
F1.9399999999999999
sg8
F0.31
sg9
Nsg10
F1.72
sg11
F2.0800000000000001
ssS'INCY'
p249
(dp250
g4
Nsg5
F0.089999999999999997
sg6
F-8.7200000000000006
sg7
Nsg8
F1.8
sg9
F4.3099999999999996
sg10
F2.6899999999999999
sg11
F-3.6200000000000001
ssS'LH'
p251
(dp252
g4
Nsg5
F6.1799999999999997
sg6
F7.96
sg7
F1.28
sg8
F1.1599999999999999
sg9
F104.5
sg10
F1.4199999999999999
sg11
F1.8899999999999999
ssS'PGR'
p253
(dp254
g4
Nsg5
F3.5600000000000001
sg6
F4.9500000000000002
sg7
F3
sg8
F0.88
sg9
F34.509999999999998
sg10
F0.96999999999999997
sg11
F0.92000000000000004
ssS'HIG'
p255
(dp256
g4
Nsg5
F0.33000000000000002
sg6
F5.1500000000000004
sg7
F1.8899999999999999
sg8
F0.78000000000000003
sg9
F32.039999999999999
sg10
F4.1799999999999997
sg11
F1.26
ssS'CELG'
p257
(dp258
g4
Nsg5
F8.25
sg6
F18.32
sg7
F3.8300000000000001
sg8
F1.47
sg9
F186.88999999999999
sg10
F4.4199999999999999
sg11
F0.88
ssS'WLTW'
p259
(dp260
g4
Nsg5
F1.8
sg6
F6.6900000000000004
sg7
Nsg8
F1
sg9
F39.159999999999997
sg10
F1.0800000000000001
sg11
F1.5900000000000001
ssS'A'
(dp261
g4
Nsg5
F6.0499999999999998
sg6
F13.460000000000001
sg7
Nsg8
F1.5600000000000001
sg9
F46.700000000000003
sg10
F3.2000000000000002
sg11
F2.6699999999999999
ssS'ABC'
p262
(dp263
g4
Nsg5
F3.6099999999999999
sg6
F0.77000000000000002
sg7
F1.9099999999999999
sg8
F0.89000000000000001
sg9
F176.15000000000001
sg10
F0.92000000000000004
sg11
F1.8799999999999999
ssS'ZION'
p264
(dp265
g4
Nsg5
F0.82999999999999996
sg6
F21.91
sg7
Nsg8
F1.6100000000000001
sg9
Nsg10
Nsg11
F1.21
ssS'STI'
p266
(dp267
g4
Nsg5
F0.94999999999999996
sg6
F22.899999999999999
sg7
F1.6100000000000001
sg8
F1.4199999999999999
sg9
Nsg10
Nsg11
F1.8600000000000001
ssS'ANTM'
p268
(dp269
g4
Nsg5
F5.1900000000000004
sg6
F3.1899999999999999
sg7
F4.5300000000000002
sg8
F0.72999999999999998
sg9
F70.430000000000007
sg10
F1.6399999999999999
sg11
F1.3600000000000001
ssS'ABT'
p270
(dp271
g4
Nsg5
F3.3799999999999999
sg6
F6.7400000000000002
sg7
F3.8700000000000001
sg8
F1.54
sg9
F76.290000000000006
sg10
F2.9100000000000001
sg11
F1.79
ssS'XOM'
p272
(dp273
g4
Nsg5
F0.83999999999999997
sg6
F4.7599999999999998
sg7
F25.440000000000001
sg8
F0.65000000000000002
sg9
F23.73
sg10
F0.81000000000000005
sg11
F0.59999999999999998
ssS'STX'
p274
(dp275
g4
Nsg5
F8.6799999999999997
sg6
F6.6100000000000003
sg7
F1.9399999999999999
sg8
F1.71
sg9
F325.31
sg10
F1.96
sg11
F0.5
ssS'STZ'
p276
(dp277
g4
Nsg5
F7.9699999999999998
sg6
F21.899999999999999
sg7
F1.73
sg8
Nsg9
F124.52
sg10
F1.54
sg11
F1.72
ssS'BHI'
p278
(dp279
g4
Nsg5
F-2.7000000000000002
sg6
F-19.989999999999998
sg7
F4.1600000000000001
sg8
F0.58999999999999997
sg9
F24.050000000000001
sg10
F4.21
sg11
F125.66
ssS'CERN'
p280
(dp281
g4
Nsg5
F10.74
sg6
F13.66
sg7
F1.1200000000000001
sg8
F0.88
sg9
F13.380000000000001
sg10
F2.1899999999999999
sg11
F1.8300000000000001
ssS'CFG'
p282
(dp283
g4
Nsg5
F0.79000000000000004
sg6
F22.719999999999999
sg7
F1.97
sg8
Nsg9
Nsg10
Nsg11
F1.01
ssS'PNR'
p284
(dp285
g4
Nsg5
F3.8999999999999999
sg6
F10.289999999999999
sg7
Nsg8
F1.49
sg9
F103.54000000000001
sg10
F2.0299999999999998
sg11
F1.51
ssS'PNW'
p286
(dp287
g4
Nsg5
F3.5
sg6
F13.17
sg7
F1.02
sg8
F0.23000000000000001
sg9
F92.760000000000005
sg10
F0.67000000000000004
sg11
F3.2000000000000002
ssS'IVZ'
p288
(dp289
g4
Nsg5
F3.1499999999999999
sg6
F18.940000000000001
sg7
Nsg8
F1.9199999999999999
sg9
F79.180000000000007
sg10
F11.380000000000001
sg11
F1.3
ssS'PNC'
p290
(dp291
g4
Nsg5
F1.1299999999999999
sg6
F26.879999999999999
sg7
F4.9699999999999998
sg8
F0.96999999999999997
sg9
Nsg10
Nsg11
F1.54
ssS'BXP'
p292
(dp293
g4
Nsg5
F2.7799999999999998
sg6
F16.920000000000002
sg7
Nsg8
F0.93999999999999995
sg9
F124.90000000000001
sg10
F0.58999999999999997
sg11
F34.259999999999998
ssS'GOOGL'
p294
(dp295
g4
Nsg5
F9.6699999999999999
sg6
F21.84
sg7
F37.93
sg8
F0.92000000000000004
sg9
F2.7200000000000002
sg10
F7.1299999999999999
sg11
F1.46
ssS'CBOE'
p296
(dp297
g4
Nsg5
F7.0700000000000003
sg6
F18.149999999999999
sg7
Nsg8
F0.32000000000000001
sg9
F53.899999999999999
sg10
F1.75
sg11
F1.51
ssS'VFC'
p298
(dp299
g4
Nsg5
F10.640000000000001
sg6
F8.5500000000000007
sg7
F1.4099999999999999
sg8
F0.66000000000000003
sg9
F59.310000000000002
sg10
F2.23
sg11
F2.3399999999999999
ssS'AMZN'
p300
(dp301
g4
Nsg5
F3.6200000000000001
sg6
F1.8100000000000001
sg7
F16.809999999999999
sg8
F1.4199999999999999
sg9
F99.650000000000006
sg10
F1.05
sg11
F5.2199999999999998
ssS'AON'
p302
(dp303
g4
Nsg5
F4.5300000000000002
sg6
F11.630000000000001
sg7
F2.29
sg8
F1.0600000000000001
sg9
F107.73999999999999
sg10
F1.1899999999999999
sg11
F1.6399999999999999
ssS'RAI'
p304
(dp305
g4
Nsg5
F7
sg6
F26.23
sg7
F2.0099999999999998
sg8
F0.33000000000000002
sg9
F60.590000000000003
sg10
F0.87
sg11
F2.5699999999999998
ssS'PRU'
p306
(dp307
g4
Nsg5
F0.59999999999999998
sg6
F7.3399999999999999
sg7
F10.1
sg8
F1.52
sg9
F72.799999999999997
sg10
F1.24
sg11
F1.1000000000000001
ssS'RF'
p308
(dp309
g4
Nsg5
F0.93999999999999995
sg6
F22.120000000000001
sg7
F1.8999999999999999
sg8
F1.46
sg9
Nsg10
Nsg11
F1.5
ssS'RL'
p310
(dp311
g4
Nsg5
F7.1200000000000001
sg6
F-1.49
sg7
Nsg8
F0.27000000000000002
sg9
F26.399999999999999
sg10
F2.5499999999999998
sg11
F-62.880000000000003
ssS'AYI'
p312
(dp313
g4
Nsg5
F11.67
sg6
F9.0399999999999991
sg7
Nsg8
F1.74
sg9
F23.239999999999998
sg10
F2.0099999999999998
sg11
F1.3200000000000001
ssS'URBN'
p314
(dp315
g4
Nsg5
F10.66
sg6
F5.6600000000000001
sg7
Nsg8
F0.51000000000000001
sg9
Nsg10
F2.6200000000000001
sg11
F1.96
ssS'CHK'
p316
(dp317
g4
Nsg5
F-2.4500000000000002
sg6
F-37.149999999999999
sg7
Nsg8
F2.3300000000000001
sg9
Nsg10
F0.48999999999999999
sg11
F1.1200000000000001
ssS'L'
(dp318
g4
Nsg5
F1.96
sg6
F6.4000000000000004
sg7
F2.1000000000000001
sg8
F0.67000000000000004
sg9
F45.039999999999999
sg10
F0.53000000000000003
sg11
F2.6600000000000001
ssS'HRS'
p319
(dp320
g4
Nsg5
F6.8200000000000003
sg6
F7.9000000000000004
sg7
Nsg8
F1.22
sg9
F144.58000000000001
sg10
F1.6599999999999999
sg11
F0.46999999999999997
ssS'HRL'
p321
(dp322
g4
Nsg5
F12.710000000000001
sg6
F9.4199999999999999
sg7
Nsg8
F0.34000000000000002
sg9
F5.3300000000000001
sg10
F2.5800000000000001
sg11
F4.0999999999999996
ssS'MRO'
p323
(dp324
g4
Nsg5
F-2.1299999999999999
sg6
F-149.59999999999999
sg7
F1.5
sg8
F2.71
sg9
F57.719999999999999
sg10
F1.21
sg11
F0.34999999999999998
ssS'MRK'
p325
(dp326
g4
Nsg5
F6.5800000000000001
sg6
F10.880000000000001
sg7
F8.4900000000000002
sg8
F0.96999999999999997
sg9
F71.120000000000005
sg10
F1.5900000000000001
sg11
NssS'HRB'
p327
(dp328
g4
Nsg5
F16.149999999999999
sg6
F13.470000000000001
sg7
Nsg8
F-0.12
sg9
Nsg10
F1.4299999999999999
sg11
F1.5700000000000001
ssS'IPG'
p329
(dp330
g4
Nsg5
F5.0899999999999999
sg6
F7.9500000000000002
sg7
Nsg8
F1.47
sg9
F85.659999999999997
sg10
F0.93999999999999995
sg11
F1.48
ssS'NLSN'
p331
(dp332
g4
Nsg5
F4.9199999999999999
sg6
F7.4500000000000002
sg7
F1.25
sg8
F0.75
sg9
F195
sg10
F1.28
sg11
F1.74
ssS'RHT'
p333
(dp334
g4
Nsg5
F5.0199999999999996
sg6
F10.539999999999999
sg7
Nsg8
F1.45
sg9
F57.539999999999999
sg10
F1.28
sg11
F2.0899999999999999
ssS'RHI'
p335
(dp336
g4
Nsg5
F19.350000000000001
sg6
F6.4699999999999998
sg7
Nsg8
F1.3100000000000001
sg9
F0.089999999999999997
sg10
F1.8999999999999999
sg11
F2.23
ssS'APH'
p337
(dp338
g4
Nsg5
F9.6899999999999995
sg6
F13.93
sg7
F1.1200000000000001
sg8
F0.85999999999999999
sg9
F86.299999999999997
sg10
F2.3500000000000001
sg11
F3.3199999999999998
ssS'ROST'
p339
(dp340
g4
Nsg5
F21.43
sg6
F8.7699999999999996
sg7
F1.6100000000000001
sg8
F1.0700000000000001
sg9
F14.279999999999999
sg10
F1.5800000000000001
sg11
F1.79
ssS'APC'
p341
(dp342
g4
Nsg5
F-2.5
sg6
F-24.25
sg7
F4.2599999999999998
sg8
F1.6499999999999999
sg9
F110.06999999999999
sg10
F2.0499999999999998
sg11
F-6.46
ssS'APA'
p343
(dp344
g4
Nsg5
F-1.71
sg6
F-14.460000000000001
sg7
F2.6499999999999999
sg8
F1.2
sg9
F108.36
sg10
F1.8
sg11
F-5.6100000000000003
ssS'APD'
p345
(dp346
g4
Nsg5
F8.0199999999999996
sg6
F32.539999999999999
sg7
F1.8999999999999999
sg8
F1.01
sg9
F41.049999999999997
sg10
F2.0299999999999998
sg11
F7.3899999999999997
ssS'KSU'
p347
(dp348
g4
Nsg5
F6.0899999999999999
sg6
F21.710000000000001
sg7
Nsg8
F0.64000000000000001
sg9
F57.189999999999998
sg10
F0.89000000000000001
sg11
F1.6399999999999999
ssS'SRE'
p349
(dp350
g4
Nsg5
F2.5099999999999998
sg6
F13.76
sg7
F2.7000000000000002
sg8
F0.60999999999999999
sg9
F111.13
sg10
F0.51000000000000001
sg11
F2.3500000000000001
ssS'KSS'
p351
(dp352
g4
Nsg5
F6.5199999999999996
sg6
F3.2599999999999998
sg7
F2.0499999999999998
sg8
F0.97999999999999998
sg9
F91.829999999999998
sg10
F1.74
sg11
F2.02
ssS'WFM'
p353
(dp354
g4
Nsg5
F7.6600000000000001
sg6
F2.54
sg7
F1.1599999999999999
sg8
F0.63
sg9
F31.23
sg10
F1.5800000000000001
sg11
F28.620000000000001
ssS'WFC'
p355
(dp356
g4
Nsg5
F1.1599999999999999
sg6
F25.850000000000001
sg7
F7.4500000000000002
sg8
F1
sg9
Nsg10
Nsg11
F1.6100000000000001
ssS'IFF'
p357
(dp358
g4
Nsg5
F8.3300000000000001
sg6
F12.720000000000001
sg7
Nsg8
F1.26
sg9
F95.150000000000006
sg10
F1.74
sg11
F3.1699999999999999
ssS'CHTR'
p359
(dp360
g4
Nsg5
F3
sg6
F10.550000000000001
sg7
F10.460000000000001
sg8
F1.3999999999999999
sg9
F125.93000000000001
sg10
F0.48999999999999999
sg11
NssS'NVDA'
p361
(dp362
g4
Nsg5
F17.07
sg6
F26.050000000000001
sg7
F1.6399999999999999
sg8
F1.5900000000000001
sg9
F36.009999999999998
sg10
F8.2599999999999998
sg11
F3.8399999999999999
ssS'KORS'
p363
(dp364
g4
Nsg5
F22.620000000000001
sg6
F12.300000000000001
sg7
F1.03
sg8
F-0.48999999999999999
sg9
F8.3499999999999996
sg10
F2.0600000000000001
sg11
F-4.3700000000000001
ssS'MAA'
p365
(dp366
g4
Nsg5
F2.1800000000000002
sg6
F17.059999999999999
sg7
Nsg8
F0.46000000000000002
sg9
F69.260000000000005
sg10
F0.12
sg11
F9.9499999999999993
ssS'AVGO'
p367
(dp368
g4
Nsg5
F2.8999999999999999
sg6
F-1.54
sg7
F5.25
sg8
F1.1100000000000001
sg9
F60.719999999999999
sg10
F4.1299999999999999
sg11
F0.97999999999999998
ssS'RTN'
p369
(dp370
g4
Nsg5
F7.1699999999999999
sg6
F9.4299999999999997
sg7
F2.48
sg8
F0.73999999999999999
sg9
F49.719999999999999
sg10
F1.6699999999999999
sg11
F2.4100000000000001
ssS'BMY'
p371
(dp372
g4
Nsg5
F12.16
sg6
F24.219999999999999
sg7
F3.9399999999999999
sg8
F0.98999999999999999
sg9
F58.030000000000001
sg10
F1.6000000000000001
sg11
F2.0800000000000001
ssS'AFL'
p373
(dp374
g4
Nsg5
F2.1699999999999999
sg6
F11.1
sg7
F6.4100000000000001
sg8
F1.0700000000000001
sg9
F33.100000000000001
sg10
F0.37
sg11
F1.51
ssS'EL'
p375
(dp376
g4
Nsg5
F11.77
sg6
F9.6199999999999992
sg7
F1.72
sg8
F0.69999999999999996
sg9
F94.219999999999999
sg10
F1.74
sg11
F3.1899999999999999
ssS'PAYX'
p377
(dp378
g4
Nsg5
F11.67
sg6
F25.940000000000001
sg7
Nsg8
F0.88
sg9
Nsg10
F1.1200000000000001
sg11
F2.9100000000000001
ssS'OXY'
p379
(dp380
g4
Nsg5
F-1.1100000000000001
sg6
F-4.9000000000000004
sg7
F3.3500000000000001
sg8
F0.26000000000000001
sg9
F46.600000000000001
sg10
F1.2
sg11
F0.40999999999999998
ssS'SHW'
p381
(dp382
g4
Nsg5
F17.629999999999999
sg6
F10.02
sg7
F1.6000000000000001
sg8
F1.4399999999999999
sg9
F94.620000000000005
sg10
F1.3200000000000001
sg11
F1.97
ssS'ED'
p383
(dp384
g4
Nsg5
F3.46
sg6
F10.890000000000001
sg7
F3.3799999999999999
sg8
F-0.01
sg9
F108.22
sg10
F0.88
sg11
F4.96
ssS'DISCK'
p385
(dp386
g4
Nsg5
F8.4600000000000009
sg6
F17.5
sg7
F1.5700000000000001
sg8
F1.3899999999999999
sg9
F145.09
sg10
F1.6899999999999999
sg11
F0.91000000000000003
ssS'EA'
p387
(dp388
g4
Nsg5
F10.49
sg6
F19.960000000000001
sg7
F1.3799999999999999
sg8
F0.83999999999999997
sg9
F24.379999999999999
sg10
F2.1499999999999999
sg11
F1.6899999999999999
ssS'ORLY'
p389
(dp390
g4
Nsg5
F14.390000000000001
sg6
F12.1
sg7
F1.3300000000000001
sg8
F0.81999999999999995
sg9
F139.00999999999999
sg10
F0.91000000000000003
sg11
F1
ssS'DLR'
p391
(dp392
g4
Nsg5
F2.8900000000000001
sg6
F20.309999999999999
sg7
Nsg8
F0.23999999999999999
sg9
F122.33
sg10
F0.88
sg11
F1.8200000000000001
ssS'CSX'
p393
(dp394
g4
Nsg5
F6.3499999999999996
sg6
F15.19
sg7
F3.3300000000000001
sg8
F1.3700000000000001
sg9
F96.790000000000006
sg10
F1.1699999999999999
sg11
F1.6599999999999999
ssS'TMK'
p395
(dp396
g4
Nsg5
F2.5
sg6
F14.050000000000001
sg7
F1.52
sg8
F0.92000000000000004
sg9
F30.77
sg10
F0.34000000000000002
sg11
F2.3300000000000001
ssS'EW'
p397
(dp398
g4
Nsg5
F13.48
sg6
F20.850000000000001
sg7
Nsg8
F0.83999999999999997
sg9
F30.920000000000002
sg10
F3.4500000000000002
sg11
F2.1699999999999999
ssS'EQIX'
p399
(dp400
g4
Nsg5
F2.79
sg6
F5.3799999999999999
sg7
F1.1599999999999999
sg8
F0.71999999999999997
sg9
F140.87
sg10
F5.4500000000000002
sg11
F7.54
ssS'ES'
p401
(dp402
g4
Nsg5
F3.6699999999999999
sg6
F12.449999999999999
sg7
F2.1099999999999999
sg8
F0.25
sg9
F100.53
sg10
F0.75
sg11
F3.21
ssS'STT'
p403
(dp404
g4
Nsg5
F0.94999999999999996
sg6
F21.920000000000002
sg7
F2.9500000000000002
sg8
F1.28
sg9
Nsg10
Nsg11
F1.21
ssS'LUV'
p405
(dp406
g4
Nsg5
F10.52
sg6
F10.16
sg7
F4.2999999999999998
sg8
F1.21
sg9
F37.369999999999997
sg10
F0.62
sg11
F1.3200000000000001
ssS'MUR'
p407
(dp408
g4
Nsg5
F-0.22
sg6
F-0.96999999999999997
sg7
Nsg8
F2.54
sg9
F60.18
sg10
F1.1000000000000001
sg11
F-5.7400000000000002
ssS'WYN'
p409
(dp410
g4
Nsg5
F6.5800000000000001
sg6
F12.69
sg7
Nsg8
F1.3500000000000001
sg9
F857.80999999999995
sg10
F0.97999999999999998
sg11
F1.26
ssS'LUK'
p411
(dp412
g4
Nsg5
F2.4900000000000002
sg6
F5.4800000000000004
sg7
F1.3400000000000001
sg8
F1.1899999999999999
sg9
F174.49000000000001
sg10
F1.3300000000000001
sg11
F0.92000000000000004
ssS'ADSK'
p413
(dp414
g4
Nsg5
F-5.5800000000000001
sg6
F-27.129999999999999
sg7
Nsg8
F2.3399999999999999
sg9
F293.54000000000002
sg10
F1.04
sg11
F-7.1500000000000004
ssS'LNT'
p415
(dp416
g4
Nsg5
F2.98
sg6
F11.27
sg7
Nsg8
F0.39000000000000001
sg9
F112.84999999999999
sg10
F0.64000000000000001
sg11
F3.0899999999999999
ssS'ECL'
p417
(dp418
g4
Nsg5
F6.7300000000000004
sg6
F9.4800000000000004
sg7
F1.8899999999999999
sg8
F1.0700000000000001
sg9
F109.63
sg10
F1.02
sg11
F2.3399999999999999
ssS'SEE'
p419
(dp420
g4
Nsg5
F6.8700000000000001
sg6
F5.0099999999999998
sg7
Nsg8
F1.1100000000000001
sg9
F698.74000000000001
sg10
F1.6100000000000001
sg11
F7.25
ssS'MTD'
p421
(dp422
g4
Nsg5
F16.829999999999998
sg6
F16.039999999999999
sg7
Nsg8
F1.3
sg9
F219.09
sg10
F1.6299999999999999
sg11
F2.6699999999999999
ssS'PVH'
p423
(dp424
g4
Nsg5
F4.54
sg6
F4.6900000000000004
sg7
Nsg8
F0.55000000000000004
sg9
F65.590000000000003
sg10
F1.9299999999999999
sg11
F2.2000000000000002
ssS'DGX'
p425
(dp426
g4
Nsg5
F7.2599999999999998
sg6
F9.3499999999999996
sg7
F1.1100000000000001
sg8
F0.97999999999999998
sg9
F80.549999999999997
sg10
F1.5800000000000001
sg11
F2.4300000000000002
ssS'NUE'
p427
(dp428
g4
Nsg5
F7.5999999999999996
sg6
F6.1600000000000001
sg7
F1.4299999999999999
sg8
F1.73
sg9
F51.82
sg10
F2.4199999999999999
sg11
F0.58999999999999997
ssS'EXPE'
p429
(dp430
g4
Nsg5
F2.1800000000000002
sg6
F3.3599999999999999
sg7
F2.1299999999999999
sg8
F1.03
sg9
F56.030000000000001
sg10
F0.66000000000000003
sg11
F1.3899999999999999
ssS'EXPD'
p431
(dp432
g4
Nsg5
F14.880000000000001
sg6
F6.8700000000000001
sg7
Nsg8
F0.63
sg9
Nsg10
F2.5899999999999999
sg11
F3.9900000000000002
ssS'UNP'
p433
(dp434
g4
Nsg5
F8.2599999999999998
sg6
F21.370000000000001
sg7
F7.2300000000000004
sg8
F1.03
sg9
F76.219999999999999
sg10
F0.93000000000000005
sg11
F1.52
ssS'UDR'
p435
(dp436
g4
Nsg5
F1.52
sg6
F31.719999999999999
sg7
Nsg8
F0.41999999999999998
sg9
F89.670000000000002
sg10
F0.17999999999999999
sg11
F-4.0999999999999996
ssS'ETFC'
p437
(dp438
g4
Nsg5
F1.05
sg6
F25.329999999999998
sg7
F1.8799999999999999
sg8
F1.3
sg9
F40.530000000000001
sg10
F1.4299999999999999
sg11
F1.5700000000000001
ssS'DUK'
p439
(dp440
g4
Nsg5
F3.1000000000000001
sg6
F9.5600000000000005
sg7
F6.4100000000000001
sg8
F0.10000000000000001
sg9
F127.61
sg10
F0.72999999999999998
sg11
F7.0700000000000003
ssS'XL'
p441
(dp442
g4
Nsg5
F1.1399999999999999
sg6
F5.2599999999999998
sg7
F1.01
sg8
F0.87
sg9
F20.370000000000001
sg10
F0.47999999999999998
sg11
NssS'R'
(dp443
g4
Nsg5
F3.4199999999999999
sg6
F3.5499999999999998
sg7
F1.5600000000000001
sg8
F1.3700000000000001
sg9
F256.08999999999997
sg10
F0.56000000000000005
sg11
NssS'CLX'
p444
(dp445
g4
Nsg5
F14.960000000000001
sg6
F11.220000000000001
sg7
Nsg8
F0.25
sg9
F603.96000000000004
sg10
F0.80000000000000004
sg11
F3.6499999999999999
ssS'DTE'
p446
(dp447
g4
Nsg5
F3.4100000000000001
sg6
F9.0399999999999991
sg7
F2.1299999999999999
sg8
F0.14000000000000001
sg9
F122.11
sg10
F1.3999999999999999
sg11
F4.3200000000000003
ssS'BBY'
p448
(dp449
g4
Nsg5
F8.6999999999999993
sg6
F3.0099999999999998
sg7
F2.2999999999999998
sg8
F0.35999999999999999
sg9
F29.960000000000001
sg10
F1.49
sg11
F1.27
ssS'FRT'
p450
(dp451
g4
Nsg5
F3.7799999999999998
sg6
F28.27
sg7
Nsg8
F0.32000000000000001
sg9
F135.94
sg10
F0.68000000000000005
sg11
F8.0899999999999999
ssS'UNH'
p452
(dp453
g4
Nsg5
F6.5599999999999996
sg6
F4.0099999999999998
sg7
F13.93
sg8
F0.58999999999999997
sg9
F74.239999999999995
sg10
F0.66000000000000003
sg11
F1.28
ssS'BBT'
p454
(dp455
g4
Nsg5
F1.0600000000000001
sg6
F21.760000000000002
sg7
F2.96
sg8
F1.1200000000000001
sg9
Nsg10
Nsg11
F2.5600000000000001
ssS'TRIP'
p456
(dp457
g4
Nsg5
F4.2300000000000004
sg6
F6.9299999999999997
sg7
Nsg8
F1.97
sg9
F15.68
sg10
F2.2200000000000002
sg11
F11.82
ssS'OMC'
p458
(dp459
g4
Nsg5
F5.8499999999999996
sg6
F7.5599999999999996
sg7
F2.1899999999999999
sg8
F1.25
sg9
F174.72
sg10
F0.90000000000000002
sg11
F2.0899999999999999
ssS'KO'
p460
(dp461
g4
Nsg5
F6.5599999999999996
sg6
F15.300000000000001
sg7
F8.9800000000000004
sg8
F0.67000000000000004
sg9
F206.12
sg10
F1.3999999999999999
sg11
F4.9000000000000004
ssS'VMC'
p462
(dp463
g4
Nsg5
F4.8600000000000003
sg6
F11.699999999999999
sg7
Nsg8
F0.97999999999999998
sg9
F51.530000000000001
sg10
F3.21
sg11
F1.3799999999999999
ssS'ARNC'
p464
(dp465
g4
Nsg5
Nsg6
F-5.0700000000000003
sg7
F1
sg8
Nsg9
F147.28
sg10
F2.5899999999999999
sg11
F1.22
ssS'KR'
p466
(dp467
g4
Nsg5
F5.5099999999999998
sg6
F1.3500000000000001
sg7
F4.5
sg8
F0.29999999999999999
sg9
F219.13999999999999
sg10
F0.76000000000000001
sg11
F3.96
ssS'XLNX'
p468
(dp469
g4
Nsg5
F9.1500000000000004
sg6
F26.5
sg7
Nsg8
F1.05
sg9
F57.890000000000001
sg10
F4.3200000000000003
sg11
F2.8799999999999999
ssS'LNC'
p470
(dp471
g4
Nsg5
F0.46999999999999997
sg6
F10.470000000000001
sg7
F1.0800000000000001
sg8
F2.1000000000000001
sg9
F38.380000000000003
sg10
F3.4399999999999999
sg11
F1.1200000000000001
ssS'KEY'
p472
(dp473
g4
Nsg5
F0.80000000000000004
sg6
F17.780000000000001
sg7
Nsg8
F0.91000000000000003
sg9
Nsg10
Nsg11
F1.6000000000000001
ssS'ITW'
p474
(dp475
g4
Nsg5
F12.720000000000001
sg6
F15.24
sg7
F2.29
sg8
F1.27
sg9
F175.09999999999999
sg10
F2.2400000000000002
sg11
F2.4900000000000002
ssS'KLAC'
p476
(dp477
g4
Nsg5
F16.030000000000001
sg6
F27.199999999999999
sg7
Nsg8
F1.76
sg9
F257.54000000000002
sg10
F3.3999999999999999
sg11
F1.3600000000000001
ssS'SWK'
p478
(dp479
g4
Nsg5
F5.3899999999999997
sg6
F10.130000000000001
sg7
F1.4299999999999999
sg8
F1.24
sg9
F73.719999999999999
sg10
F1.04
sg11
F1.8999999999999999
ssS'RSG'
p480
(dp481
g4
Nsg5
F4.8799999999999999
sg6
F6.75
sg7
F1.8600000000000001
sg8
F0.56999999999999995
sg9
F99.799999999999997
sg10
F0.68999999999999995
sg11
F2.5099999999999998
ssS'WYNN'
p482
(dp483
g4
Nsg5
F3.5499999999999998
sg6
F5.4100000000000001
sg7
F1.27
sg8
F2.0299999999999998
sg9
Nsg10
F2.04
sg11
F3.4700000000000002
ssS'SWN'
p484
(dp485
g4
Nsg5
F2.0499999999999998
sg6
F-42.920000000000002
sg7
Nsg8
F1.3200000000000001
sg9
F362.44
sg10
F1.6000000000000001
sg11
F0.20999999999999999
ssS'DG'
p486
(dp487
g4
Nsg5
F11.16
sg6
F5.5300000000000002
sg7
F1.71
sg8
F0.73999999999999999
sg9
F54.859999999999999
sg10
F1.3899999999999999
sg11
F2.0899999999999999
ssS'DD'
p488
(dp489
g4
Nsg5
F6.04
sg6
F9.6300000000000008
sg7
F3.48
sg8
F1.8500000000000001
sg9
F89.200000000000003
sg10
F1.9399999999999999
sg11
F2.6200000000000001
ssS'DE'
p490
(dp491
g4
Nsg5
F2.5800000000000001
sg6
F6.6100000000000003
sg7
F3.8999999999999999
sg8
F0.71999999999999997
sg9
F460.86000000000001
sg10
F2.1899999999999999
sg11
F0.97999999999999998
ssS'AAP'
p492
(dp493
g4
Nsg5
F5.5800000000000001
sg6
F4.3099999999999996
sg7
Nsg8
F0.78000000000000003
sg9
F35.520000000000003
sg10
F1.45
sg11
F1.4099999999999999
ssS'WBA'
p494
(dp495
g4
Nsg5
F5.2000000000000002
sg6
F3.6899999999999999
sg7
F7.9000000000000004
sg8
F0.84999999999999998
sg9
F61.009999999999998
sg10
F1.3
sg11
F1.3
ssS'TGT'
p496
(dp497
g4
Nsg5
F7.9100000000000001
sg6
F4.0199999999999996
sg7
F6.4900000000000002
sg8
F0.27000000000000002
sg9
F116.17
sg10
F0.94999999999999996
sg11
F-2.9300000000000002
ssS'HBAN'
p498
(dp499
g4
Nsg5
F0.87
sg6
F21
sg7
F1.4199999999999999
sg8
F1.3
sg9
Nsg10
Nsg11
F1.5700000000000001
ssS'BIIB'
p500
(dp501
g4
Nsg5
F16.100000000000001
sg6
F30.170000000000002
sg7
F3.7400000000000002
sg8
F0.45000000000000001
sg9
F56.810000000000002
sg10
F2.29
sg11
F2.04
ssS'TSS'
p502
(dp503
g4
Nsg5
F6.5700000000000003
sg6
F7.2599999999999998
sg7
Nsg8
F1.1399999999999999
sg9
F151.06999999999999
sg10
F2.3199999999999998
sg11
F1.6599999999999999
ssS'ATVI'
p504
(dp505
g4
Nsg5
F5.3399999999999999
sg6
F14.960000000000001
sg7
F2.23
sg8
F0.79000000000000004
sg9
F46.560000000000002
sg10
F1.95
sg11
F1.5700000000000001
ssS'AKAM'
p506
(dp507
g4
Nsg5
F6.5999999999999996
sg6
F13.529999999999999
sg7
Nsg8
F0.34999999999999998
sg9
F19.82
sg10
F3.6600000000000001
sg11
F1.3100000000000001
ssS'DHI'
p508
(dp509
g4
Nsg5
F8.1799999999999997
sg6
F7.3899999999999997
sg7
Nsg8
F1.1599999999999999
sg9
F44.630000000000003
sg10
F6.4400000000000004
sg11
F1.0800000000000001
ssS'HOLX'
p510
(dp511
g4
Nsg5
F4.4699999999999998
sg6
F27.309999999999999
sg7
Nsg8
F0.53000000000000003
sg9
F118.28
sg10
F0.85999999999999999
sg11
F2.25
ssS'M'
(dp512
g4
Nsg5
F5.4100000000000001
sg6
F2.27
sg7
F2.0299999999999998
sg8
F0.67000000000000004
sg9
F156.40000000000001
sg10
F1.3500000000000001
sg11
F0.38
ssS'MLM'
p513
(dp514
g4
Nsg5
F5.71
sg6
F11.630000000000001
sg7
Nsg8
F1.3799999999999999
sg9
F45.299999999999997
sg10
F1.78
sg11
NssS'INTU'
p515
(dp516
g4
Nsg5
F17.120000000000001
sg6
F17.82
sg7
F1.55
sg8
F1.3300000000000001
sg9
F29.460000000000001
sg10
F0.90000000000000002
sg11
F2.0299999999999998
ssS'ALXN'
p517
(dp518
g4
Nsg5
F4.1900000000000004
sg6
F14.66
sg7
F1.22
sg8
F1.26
sg9
F37.07
sg10
F3.27
sg11
F1.3
ssS'SLG'
p519
(dp520
g4
Nsg5
F1.3
sg6
F15.01
sg7
Nsg8
F1.3700000000000001
sg9
F77.930000000000007
sg10
F4.2199999999999998
sg11
F1.4199999999999999
ssS'DHR'
p521
(dp522
g4
Nsg5
F4
sg6
F13.41
sg7
F3.3100000000000001
sg8
F1.03
sg9
F50.229999999999997
sg10
F1.05
sg11
F2.4700000000000002
ssS'SLB'
p523
(dp524
g4
Nsg5
F1.79
sg6
F-6.7699999999999996
sg7
F5.71
sg8
F0.81999999999999995
sg9
F46.340000000000003
sg10
F1.5900000000000001
sg11
F0.92000000000000004
ssS'AJG'
p525
(dp526
g4
Nsg5
F2.8999999999999999
sg6
F7.5
sg7
Nsg8
F1.3
sg9
F78.989999999999995
sg10
F0.93999999999999995
sg11
F1.71
ssS'MCO'
p527
(dp528
g4
Nsg5
F19.59
sg6
F11.369999999999999
sg7
Nsg8
F1.0800000000000001
sg9
Nsg10
F2.4500000000000002
sg11
F2.2599999999999998
ssS'JPM'
p529
(dp530
g4
Nsg5
F1.03
sg6
F27.82
sg7
F21.539999999999999
sg8
F1.21
sg9
Nsg10
Nsg11
F1.76
ssS'MCD'
p531
(dp532
g4
Nsg5
F15.16
sg6
F19.579999999999998
sg7
F5.8600000000000003
sg8
F0.80000000000000004
sg9
Nsg10
F1.8300000000000001
sg11
F2.7000000000000002
ssS'NRG'
p533
(dp534
g4
Nsg5
F1.6899999999999999
sg6
F-8.5800000000000001
sg7
F1.45
sg8
F1.29
sg9
F479.10000000000002
sg10
F1.3
sg11
NssS'PBCT'
p535
(dp536
g4
Nsg5
F0.72999999999999998
sg6
F22.329999999999998
sg7
Nsg8
F0.94999999999999996
sg9
Nsg10
Nsg11
F4.7300000000000004
ssS'VTR'
p537
(dp538
g4
Nsg5
F2.7400000000000002
sg6
F20.079999999999998
sg7
F1.4299999999999999
sg8
F0.28999999999999998
sg9
F112.09
sg10
F0.89000000000000001
sg11
F5.3899999999999997
ssS'AXP'
p539
(dp540
g4
Nsg5
F3.2599999999999998
sg6
F17.629999999999999
sg7
F6.8600000000000003
sg8
F1.1299999999999999
sg9
F265.42000000000002
sg10
F1.99
sg11
F1.8799999999999999
ssS'NFLX'
p541
(dp542
g4
Nsg5
F2.8700000000000001
sg6
F3.5499999999999998
sg7
F-1.5900000000000001
sg8
F0.66000000000000003
sg9
F113.17
sg10
F1.1499999999999999
sg11
F2.3500000000000001
ssS'EXC'
p543
(dp544
g4
Nsg5
F2.1000000000000001
sg6
F6.0099999999999998
sg7
F8.1699999999999999
sg8
F0.38
sg9
F132.12
sg10
F0.84999999999999998
sg11
F10.56
ssS'AAPL'
p545
(dp546
g4
Nsg5
F11.59
sg6
F20.739999999999998
sg7
F66.340000000000003
sg8
F1.4299999999999999
sg9
F73.739999999999995
sg10
F1.3899999999999999
sg11
F1.45
ssS'SRCL'
p547
(dp548
g4
Nsg5
F4.75
sg6
F5.2400000000000002
sg7
Nsg8
F0
sg9
F98.989999999999995
sg10
F1.3100000000000001
sg11
F2.1400000000000001
ssS'WU'
p549
(dp550
g4
Nsg5
F7.2800000000000002
sg6
F4.2199999999999998
sg7
Nsg8
F0.96999999999999997
sg9
F465.38999999999999
sg10
F0.32000000000000001
sg11
F1.96
ssS'EXR'
p551
(dp552
g4
Nsg5
F4.5999999999999996
sg6
F35.200000000000003
sg7
Nsg8
F0.41999999999999998
sg9
F166
sg10
F1.26
sg11
F4.8499999999999996
ssS'WY'
p553
(dp554
g4
Nsg5
F3.3100000000000001
sg6
F16.539999999999999
sg7
Nsg8
F1.6200000000000001
sg9
F77.230000000000004
sg10
F1.4299999999999999
sg11
F6.5800000000000001
ssS'VNO'
p555
(dp556
g4
Nsg5
F2.6800000000000002
sg6
F39.609999999999999
sg7
F1.03
sg8
F1.1699999999999999
sg9
F120.88
sg10
F5.96
sg11
F1.77
ssS'UNM'
p557
(dp558
g4
Nsg5
F1.55
sg6
F8.5399999999999991
sg7
F1.1299999999999999
sg8
F1.52
sg9
F32.850000000000001
sg10
F8.3900000000000006
sg11
F1.6499999999999999
ssS'SPLS'
p559
(dp560
g4
Nsg5
F5.4500000000000002
sg6
F-13.050000000000001
sg7
Nsg8
F1.55
sg9
F31.09
sg10
F1.4399999999999999
sg11
F-11.449999999999999
ssS'AWK'
p561
(dp562
g4
Nsg5
F4.0300000000000002
sg6
F14.449999999999999
sg7
F1.29
sg8
F0.16
sg9
F138.21000000000001
sg10
F0.32000000000000001
sg11
F3.3500000000000001
ssS'HST'
p563
(dp564
g4
Nsg5
F3.8599999999999999
sg6
F13.5
sg7
F1.29
sg8
F1.23
sg9
F55.18
sg10
F2.3300000000000001
sg11
F0.83999999999999997
ssS'RIG'
p565
(dp566
g4
Nsg5
F2.21
sg6
F17.59
sg7
F1.46
sg8
F1.6299999999999999
sg9
F52.68
sg10
F1.99
sg11
F-3.7599999999999998
ssS'HSY'
p567
(dp568
g4
Nsg5
F16.620000000000001
sg6
F8.2100000000000009
sg7
Nsg8
F0.14000000000000001
sg9
F335.75
sg10
F1.1000000000000001
sg11
F2.6200000000000001
ssS'DLPH'
p569
(dp570
g4
Nsg5
F11.99
sg6
F6.9000000000000004
sg7
F1.96
sg8
F1.77
sg9
F135.59999999999999
sg10
F1.3400000000000001
sg11
F1.04
ssS'FBHS'
p571
(dp572
g4
Nsg5
F8.3300000000000001
sg6
F8.4800000000000004
sg7
Nsg8
F1.24
sg9
F61.359999999999999
sg10
F2.0600000000000001
sg11
F2.1299999999999999
ssS'CTSH'
p573
(dp574
g4
Nsg5
F10.99
sg6
F12.07
sg7
F1.8300000000000001
sg8
F0.97999999999999998
sg9
F12.109999999999999
sg10
F3.0299999999999998
sg11
F1.3899999999999999
ssS'GPN'
p575
(dp576
g4
Nsg5
Nsg6
F4.9900000000000002
sg7
Nsg8
F1.25
sg9
F162.66
sg10
F1.1499999999999999
sg11
F1.3100000000000001
ssS'HAL'
p577
(dp578
g4
Nsg5
F1.3400000000000001
sg6
F-21.190000000000001
sg7
F-1.53
sg8
F0.83999999999999997
sg9
F121.36
sg10
F2.5600000000000001
sg11
F2.1200000000000001
ssS'FITB'
p579
(dp580
g4
Nsg5
F1.0900000000000001
sg6
F26.969999999999999
sg7
F2.2599999999999998
sg8
F1.4299999999999999
sg9
Nsg10
Nsg11
F2.6699999999999999
ssS'EQR'
p581
(dp582
g4
Nsg5
F2.52
sg6
F35.18
sg7
F1.2
sg8
F0.56999999999999995
sg9
F82.109999999999999
sg10
F0.16
sg11
F18.050000000000001
ssS'EQT'
p583
(dp584
g4
Nsg5
F0.23000000000000001
sg6
F-13.529999999999999
sg7
F1.29
sg8
F0.73999999999999999
sg9
F35.350000000000001
sg10
F1.3999999999999999
sg11
F3.0699999999999998
ssS'GPC'
p585
(dp586
g4
Nsg5
F7.5800000000000001
sg6
F4.4400000000000004
sg7
Nsg8
F1.1399999999999999
sg9
F31.710000000000001
sg10
F1.3500000000000001
sg11
F2.4399999999999999
ssS'HAR'
p587
(dp588
g4
Nsg5
Nsg6
Nsg7
Nsg8
Nsg9
Nsg10
Nsg11
NssS'HAS'
p589
(dp590
g4
Nsg5
F11.279999999999999
sg6
F11.34
sg7
Nsg8
F0.75
sg9
F87.170000000000002
sg10
F2.3300000000000001
sg11
F3.1000000000000001
ssS'PH'
p591
(dp592
g4
Nsg5
F6.1799999999999997
sg6
F8.1099999999999994
sg7
F1.25
sg8
F1.25
sg9
F127.04000000000001
sg10
F1.51
sg11
F1.55
ssS'LVLT'
p593
(dp594
g4
Nsg5
F3.4700000000000002
sg6
F7.8799999999999999
sg7
F2.3700000000000001
sg8
F1.04
sg9
F98.260000000000005
sg10
F1.6200000000000001
sg11
F15.01
ssS'GPS'
p595
(dp596
g4
Nsg5
F12.380000000000001
sg6
F4.46
sg7
F1.6399999999999999
sg8
F0.5
sg9
F45.950000000000003
sg10
F1.79
sg11
F1.5600000000000001
ssS'YUM'
p597
(dp598
g4
Nsg5
F15.710000000000001
sg6
F24.210000000000001
sg7
F1.1799999999999999
sg8
F0.80000000000000004
sg9
Nsg10
F0.81999999999999995
sg11
F1.8799999999999999
ssS'SYF'
p599
(dp600
g4
Nsg5
F2.54
sg6
F31.199999999999999
sg7
F7.0700000000000003
sg8
F1.01
sg9
Nsg10
Nsg11
F1.3
ssS'PHM'
p601
(dp602
g4
Nsg5
F6.3200000000000003
sg6
F7.7699999999999996
sg7
Nsg8
F1.0900000000000001
sg9
F70.189999999999998
sg10
F4.4199999999999999
sg11
F0.51000000000000001
ssS'SYK'
p603
(dp604
g4
Nsg5
F8.1999999999999993
sg6
F14.33
sg7
F1.7
sg8
F0.58999999999999997
sg9
F74.390000000000001
sg10
F3.0899999999999999
sg11
F2.2200000000000002
ssS'XEC'
p605
(dp606
g4
Nsg5
F5.8899999999999997
sg6
F-3.1699999999999999
sg7
Nsg8
F0.92000000000000004
sg9
F67.319999999999993
sg10
F1.8700000000000001
sg11
F0.32000000000000001
ssS'KIM'
p607
(dp608
g4
Nsg5
F2.1499999999999999
sg6
F26.940000000000001
sg7
Nsg8
F0.53000000000000003
sg9
F93.920000000000002
sg10
F2.7799999999999998
sg11
F5.4500000000000002
ssS'SYY'
p609
(dp610
g4
Nsg5
F9.0199999999999996
sg6
F1.9299999999999999
sg7
F1.97
sg8
F0.40999999999999998
sg9
F356.98000000000002
sg10
F1.45
sg11
F1.8400000000000001
ssS'AEP'
p611
(dp612
g4
Nsg5
F3.4900000000000002
sg6
F4.3099999999999996
sg7
F4.5300000000000002
sg8
F0.14999999999999999
sg9
F117.28
sg10
F0.46000000000000002
sg11
F7.8700000000000001
ssS'AES'
p613
(dp614
g4
Nsg5
F3.9500000000000002
sg6
F-9.2699999999999996
sg7
F2.9500000000000002
sg8
F1.48
sg9
F328.55000000000001
sg10
F1.22
sg11
F1.0600000000000001
ssS'AET'
p615
(dp616
g4
Nsg5
F5.6100000000000003
sg6
F1.8400000000000001
sg7
F2.8300000000000001
sg8
F0.58999999999999997
sg9
F65.719999999999999
sg10
F0.76000000000000001
sg11
F1.3999999999999999
ssS'EMN'
p617
(dp618
g4
Nsg5
F6.0800000000000001
sg6
F9.7100000000000009
sg7
F1.3899999999999999
sg8
F1.3
sg9
F145.61000000000001
sg10
F1.9299999999999999
sg11
F1.27
ssS'GRMN'
p619
(dp620
g4
Nsg5
F8.8300000000000001
sg6
F21.780000000000001
sg7
Nsg8
F0.78000000000000003
sg9
Nsg10
F3.77
sg11
F4.9900000000000002
ssS'ESRX'
p621
(dp622
g4
Nsg5
F6.3600000000000003
sg6
F3.4199999999999999
sg7
F5.1699999999999999
sg8
F1.0800000000000001
sg9
F97.480000000000004
sg10
F0.70999999999999996
sg11
F0.77000000000000002
ssS'AMAT'
p623
(dp624
g4
Nsg5
F12.449999999999999
sg6
F20.41
sg7
F3.3199999999999998
sg8
F1.8200000000000001
sg9
F67
sg10
F2.9300000000000002
sg11
F0.52000000000000002
ssS'AEE'
p625
(dp626
g4
Nsg5
F3.6699999999999999
sg6
F10.93
sg7
F2.1000000000000001
sg8
F0.31
sg9
F113.68000000000001
sg10
F0.52000000000000002
sg11
F3.2599999999999998
ssS'CTAS'
p627
(dp628
g4
Nsg5
F12.1
sg6
F10.25
sg7
Nsg8
F0.84999999999999998
sg9
F52.539999999999999
sg10
F1.73
sg11
F2.3300000000000001
ssS'EMR'
p629
(dp630
g4
Nsg5
F8.4100000000000001
sg6
F10.550000000000001
sg7
F2.0800000000000001
sg8
F1.25
sg9
F50.490000000000002
sg10
F2.5099999999999998
sg11
F3.2599999999999998
ssS'FDX'
p631
(dp632
g4
Nsg5
F6.6200000000000001
sg6
F4.9699999999999998
sg7
F4.9299999999999997
sg8
F1.48
sg9
F92.890000000000001
sg10
F1.5900000000000001
sg11
F1.3200000000000001
ssS'CRM'
p633
(dp634
g4
Nsg5
F0.080000000000000002
sg6
F1.48
sg7
F2.3399999999999999
sg8
F1.6200000000000001
sg9
F31.949999999999999
sg10
F0.70999999999999996
sg11
F2.3399999999999999
ssS'TSO'
p635
(dp636
g4
Nsg5
F4.7000000000000002
sg6
F2.7999999999999998
sg7
F1.22
sg8
F1.22
sg9
F79.709999999999994
sg10
F2.0499999999999998
sg11
F0.98999999999999999
ssS'NWSA'
p637
(dp638
g4
Nsg5
F1.8200000000000001
sg6
F-2.6400000000000001
sg7
Nsg8
F2
sg9
F3.29
sg10
F1.53
sg11
F6.1299999999999999
ssS'PX'
p639
(dp640
g4
Nsg5
F7.6200000000000001
sg6
F14.26
sg7
F2.9300000000000002
sg8
F1.1100000000000001
sg9
F156.78999999999999
sg10
F1.3400000000000001
sg11
NssS'PG'
p641
(dp642
g4
Nsg5
F7.5899999999999999
sg6
F23.140000000000001
sg7
F13.199999999999999
sg8
F0.56000000000000005
sg9
F55.759999999999998
sg10
F0.89000000000000001
sg11
F3.8199999999999998
ssS'CTXS'
p643
(dp644
g4
Nsg5
F8.8200000000000003
sg6
F14.029999999999999
sg7
F1.03
sg8
F1.3899999999999999
sg9
F84.069999999999993
sg10
F1.28
sg11
F1.5700000000000001
ssS'PM'
p645
(dp646
g4
Nsg5
F18.84
sg6
F26.350000000000001
sg7
F8.4600000000000009
sg8
F0.93000000000000005
sg9
Nsg10
F1.26
sg11
F2.2000000000000002
ssS'EFX'
p647
(dp648
g4
Nsg5
F8.2699999999999996
sg6
F16.620000000000001
sg7
Nsg8
F0.98999999999999999
sg9
F90.409999999999997
sg10
F0.58999999999999997
sg11
F2.0699999999999998
ssS'C'
(dp649
g4
Nsg5
F0.85999999999999999
sg6
F24.260000000000002
sg7
F51.460000000000001
sg8
F1.5800000000000001
sg9
Nsg10
Nsg11
F1.4099999999999999
ssS'MHK'
p650
(dp651
g4
Nsg5
F7.8200000000000003
sg6
F10.65
sg7
F1.3400000000000001
sg8
F1.46
sg9
F43.200000000000003
sg10
F1.3200000000000001
sg11
F2.6899999999999999
ssS'FOX'
p652
(dp653
g4
Nsg5
F8.0899999999999999
sg6
F10.720000000000001
sg7
F3.4300000000000002
sg8
F1.3999999999999999
sg9
F117.93000000000001
sg10
F2.2400000000000002
sg11
F1.3100000000000001
ssS'COTY'
p654
(dp655
g4
Nsg5
F2.1699999999999999
sg6
F-2.29
sg7
Nsg8
F0.070000000000000007
sg9
F70.060000000000002
sg10
F1.1499999999999999
sg11
F-3.8999999999999999
ssS'QCOM'
p656
(dp657
g4
Nsg5
F7.6799999999999997
sg6
F19.25
sg7
F6.1200000000000001
sg8
F1.53
sg9
F38.100000000000001
sg10
F1.6699999999999999
sg11
F1.23
ssS'XRX'
p658
(dp659
g4
Nsg5
F3.1099999999999999
sg6
F-4.6600000000000001
sg7
F1.23
sg8
F0.88
sg9
F96.540000000000006
sg10
F1.8
sg11
F-77.640000000000001
ssS'ULTA'
p660
(dp661
g4
Nsg5
F17.739999999999998
sg6
F8.75
sg7
Nsg8
F0.69999999999999996
sg9
Nsg10
F2.8599999999999999
sg11
F1.6699999999999999
ssS'MOS'
p662
(dp663
g4
Nsg5
F1.25
sg6
F0.56999999999999995
sg7
F1.1499999999999999
sg8
F1.4299999999999999
sg9
F40.899999999999999
sg10
F1.97
sg11
NssS'PSA'
p664
(dp665
g4
Nsg5
F9.0199999999999996
sg6
F55.710000000000001
sg7
F1.96
sg8
F0.46999999999999997
sg9
F4.21
sg10
F0.40999999999999998
sg11
F2.6099999999999999
ssS'PSX'
p666
(dp667
g4
Nsg5
F1.0700000000000001
sg6
F2.2200000000000002
sg7
F2.1600000000000001
sg8
F0.89000000000000001
sg9
F43.030000000000001
sg10
F1.3899999999999999
sg11
F-4.04
ssS'MON'
p668
(dp669
g4
Nsg5
F10.26
sg6
F14.109999999999999
sg7
F2.8599999999999999
sg8
F1.04
sg9
F150.53999999999999
sg10
F1.4399999999999999
sg11
F3.02
ssS'MCHP'
p670
(dp671
g4
Nsg5
F5.6799999999999997
sg6
F4.8300000000000001
sg7
F1.0600000000000001
sg8
F1.26
sg9
F90.209999999999994
sg10
F3.27
sg11
F0.73999999999999999
ssS'ETR'
p672
(dp673
g4
Nsg5
F2.4700000000000002
sg6
F-6.75
sg7
F3
sg8
F0.63
sg9
F188.97999999999999
sg10
F0.88
sg11
F-2.4100000000000001
ssS'COP'
p674
(dp675
g4
Nsg5
F-2.0299999999999998
sg6
F-5.8899999999999997
sg7
F5.7699999999999996
sg8
F1.28
sg9
F74.25
sg10
F1.4199999999999999
sg11
F-2.2599999999999998
ssS'DVN'
p676
(dp677
g4
Nsg5
F3.1699999999999999
sg6
F2.7599999999999998
sg7
F2.4199999999999999
sg8
F2.4399999999999999
sg9
F95.379999999999995
sg10
F1.53
sg11
F-3.3399999999999999
ssS'KMB'
p678
(dp679
g4
Nsg5
F14.44
sg6
F11.99
sg7
F3.1200000000000001
sg8
F0.82999999999999996
sg9
Nsg10
F0.87
sg11
F3.3700000000000001
ssS'DVA'
p680
(dp681
g4
Nsg5
F5.7199999999999998
sg6
F8.2799999999999994
sg7
F2.3999999999999999
sg8
F1.0700000000000001
sg9
F143.80000000000001
sg10
F1.6399999999999999
sg11
F1.5600000000000001
ssS'KMI'
p682
(dp683
g4
Nsg5
F2.98
sg6
F6.2699999999999996
sg7
F4.6200000000000001
sg8
F0.73999999999999999
sg9
F112.79000000000001
sg10
F0.40000000000000002
sg11
F2.9300000000000002
ssS'GWW'
p684
(dp685
g4
Nsg5
F12.48
sg6
F5.8399999999999999
sg7
F1.02
sg8
F0.46999999999999997
sg9
F119.45
sg10
F1.8300000000000001
sg11
F2.8300000000000001
ssS'FISV'
p686
(dp687
g4
Nsg5
F9.5500000000000007
sg6
F15.949999999999999
sg7
F1.3799999999999999
sg8
F0.81000000000000005
sg9
F191.34
sg10
F0.90000000000000002
sg11
F1.9399999999999999
ssS'COG'
p688
(dp689
g4
Nsg5
F-3.5600000000000001
sg6
F-18.379999999999999
sg7
Nsg8
F0.78000000000000003
sg9
F56.18
sg10
F3.3399999999999999
sg11
F0.81000000000000005
ssS'COF'
p690
(dp691
g4
Nsg5
F1.04
sg6
F18.780000000000001
sg7
F10.92
sg8
F1.23
sg9
Nsg10
Nsg11
F1.3600000000000001
ssS'COH'
p692
(dp693
g4
Nsg5
F9.5399999999999991
sg6
F11.550000000000001
sg7
Nsg8
F0.57999999999999996
sg9
F20.460000000000001
sg10
F4.3499999999999996
sg11
F2
ssS'PEG'
p694
(dp695
g4
Nsg5
F3.5299999999999998
sg6
F5.8600000000000003
sg7
F3.29
sg8
F0.35999999999999999
sg9
F90.069999999999993
sg10
F0.87
sg11
F-112.23
ssS'ETN'
p696
(dp697
g4
Nsg5
F4.5899999999999999
sg6
F9.8599999999999994
sg7
F2.6299999999999999
sg8
F1.46
sg9
F54.109999999999999
sg10
F1.25
sg11
F1.6299999999999999
ssS'COL'
p698
(dp699
g4
Nsg5
F8.5899999999999999
sg6
F13.83
sg7
Nsg8
F0.78000000000000003
sg9
F91.959999999999994
sg10
F1.5900000000000001
sg11
F1.6399999999999999
ssS'BCR'
p700
(dp701
g4
Nsg5
F11.56
sg6
F15.699999999999999
sg7
Nsg8
F0.35999999999999999
sg9
F104.81999999999999
sg10
F1.48
sg11
F2.3300000000000001
ssS'KMX'
p702
(dp703
g4
Nsg5
F4.5
sg6
F3.8799999999999999
sg7
Nsg8
F1.6699999999999999
sg9
F389.42000000000002
sg10
F2.3399999999999999
sg11
F1.4099999999999999
ssS'DLTR'
p704
(dp705
g4
Nsg5
F6.5199999999999996
sg6
F4.1299999999999999
sg7
F1.79
sg8
F0.45000000000000001
sg9
F112.28
sg10
F1.9099999999999999
sg11
F1.1100000000000001
ssS'ZBH'
p706
(dp707
g4
Nsg5
F4.0999999999999996
sg6
F6.4000000000000004
sg7
F1.6299999999999999
sg8
F1.1399999999999999
sg9
F115.89
sg10
F1.9099999999999999
sg11
F1.55
ssS'AAL'
p708
(dp709
g4
Nsg5
F6.4500000000000002
sg6
F5.4699999999999998
sg7
F6.1500000000000004
sg8
F1.3300000000000001
sg9
F709.95000000000005
sg10
F0.68999999999999995
sg11
F3.5899999999999999
ssS'CI'
p710
(dp711
g4
Nsg5
F3.7799999999999998
sg6
F4.8399999999999999
sg7
F4.6799999999999997
sg8
F0.47999999999999998
sg9
F33.340000000000003
sg10
F0.93999999999999995
sg11
F1.26
ssS'HES'
p712
(dp713
g4
Nsg5
F-5.5700000000000003
sg6
F-119.27
sg7
F1.2
sg8
F1.5
sg9
F44.539999999999999
sg10
F1.96
sg11
F-2.4500000000000002
ssS'CB'
p714
(dp715
g4
Nsg5
F2.4500000000000002
sg6
F14.9
sg7
F5.29
sg8
F0.88
sg9
F31.25
sg10
F0.34000000000000002
sg11
F2.9399999999999999
ssS'CA'
p716
(dp717
g4
Nsg5
F6.2000000000000002
sg6
F19.199999999999999
sg7
F1.04
sg8
F0.67000000000000004
sg9
F51.469999999999999
sg10
F1.24
sg11
F24.129999999999999
ssS'CF'
p718
(dp719
g4
Nsg5
F1.8700000000000001
sg6
F-8.7699999999999996
sg7
Nsg8
F0.85999999999999999
sg9
F90.549999999999997
sg10
F3.29
sg11
F-2.7999999999999998
ssS'WAT'
p720
(dp721
g4
Nsg5
F8.8699999999999992
sg6
F24.34
sg7
Nsg8
F1.24
sg9
F77.980000000000004
sg10
F5.9800000000000004
sg11
F2.77
ssS'ZTS'
p722
(dp723
g4
Nsg5
F12.17
sg6
F17.25
sg7
Nsg8
F1.24
sg9
F273.26999999999998
sg10
F1.96
sg11
F2.0800000000000001
ssS'CHRW'
p724
(dp725
g4
Nsg5
F14.73
sg6
F3.8300000000000001
sg7
Nsg8
F0.55000000000000004
sg9
F94.230000000000004
sg10
F1.1200000000000001
sg11
F2.8100000000000001
ssS'TDC'
p726
(dp727
g4
Nsg5
F7.0700000000000003
sg6
F7.4500000000000002
sg7
Nsg8
F1.24
sg9
F58.810000000000002
sg10
F2.04
sg11
F7.2699999999999996
ssS'TDG'
p728
(dp729
g4
Nsg5
F9.5899999999999999
sg6
F17.550000000000001
sg7
Nsg8
F0.64000000000000001
sg9
Nsg10
F3.1699999999999999
sg11
F2.7200000000000002
ssS'SBUX'
p730
(dp731
g4
Nsg5
F18.510000000000002
sg6
F13.470000000000001
sg7
F4.3300000000000001
sg8
F0.65000000000000002
sg9
F70.700000000000003
sg10
F1.23
sg11
F1.8100000000000001
ssS'PLD'
p732
(dp733
g4
Nsg5
F1.8300000000000001
sg6
F43.780000000000001
sg7
F1.49
sg8
F0.97999999999999998
sg9
F62.07
sg10
F1.53
sg11
NssS'CMCSA'
p734
(dp735
g4
Nsg5
F6.1500000000000004
sg6
F11.119999999999999
sg7
F19.5
sg8
F1.26
sg9
F104.54000000000001
sg10
F0.80000000000000004
sg11
F1.6399999999999999
ssS'MKC'
p736
(dp737
g4
Nsg5
F8.9299999999999997
sg6
F10.69
sg7
Nsg8
F0.47999999999999998
sg9
F94.769999999999996
sg10
F0.79000000000000004
sg11
F2.77
ssS'PDCO'
p738
(dp739
g4
Nsg5
F5.7699999999999996
sg6
F3.0600000000000001
sg7
Nsg8
F1.01
sg9
F76.959999999999994
sg10
F2
sg11
F2.7200000000000002
ssS'CVX'
p740
(dp741
g4
Nsg5
F-0.64000000000000001
sg6
F2.6000000000000001
sg7
F15.58
sg8
F1.2
sg9
F30.620000000000001
sg10
F1.04
sg11
F0.33000000000000002
ssS'AIZ'
p742
(dp743
g4
Nsg5
F1.72
sg6
F7.0499999999999998
sg7
Nsg8
F0.64000000000000001
sg9
F25.66
sg10
F0.93000000000000005
sg11
F0.75
ssS'EIX'
p744
(dp745
g4
Nsg5
F2.6299999999999999
sg6
F11.699999999999999
sg7
F3.2799999999999998
sg8
F0.12
sg9
F90.799999999999997
sg10
F0.46000000000000002
sg11
F4.4400000000000004
ssS'AIV'
p746
(dp747
g4
Nsg5
F2.4399999999999999
sg6
F42.799999999999997
sg7
Nsg8
F0.68999999999999995
sg9
F205.05000000000001
sg10
F0.41999999999999998
sg11
F12.58
ssS'CVS'
p748
(dp749
g4
Nsg5
F6.9699999999999998
sg6
F2.8700000000000001
sg7
F11.16
sg8
F0.59999999999999998
sg9
F81.060000000000002
sg10
F1.0800000000000001
sg11
F1.73
ssS'RCL'
p750
(dp751
g4
Nsg5
F4.6600000000000001
sg6
F16.289999999999999
sg7
F2.8399999999999999
sg8
F1.1100000000000001
sg9
F93.049999999999997
sg10
F0.14000000000000001
sg11
F0.93999999999999995
ssS'LOW'
p752
(dp753
g4
Nsg5
F9.8800000000000008
sg6
F4.2199999999999998
sg7
F5.6900000000000004
sg8
F1.1399999999999999
sg9
F290.44999999999999
sg10
F1.04
sg11
F1.1699999999999999
ssS'CHD'
p754
(dp755
g4
Nsg5
F10.619999999999999
sg6
F13.56
sg7
Nsg8
F0.39000000000000001
sg9
F66.049999999999997
sg10
F0.65000000000000002
sg11
F3.29
ssS'AIG'
p756
(dp757
g4
Nsg5
F0.28000000000000003
sg6
F1
sg7
F-7.0099999999999998
sg8
F1.3400000000000001
sg9
F41.18
sg10
F2.3900000000000001
sg11
F0.080000000000000002
ssS'DIS'
p758
(dp759
g4
Nsg5
F9.9000000000000004
sg6
F16.629999999999999
sg7
F11.93
sg8
F1.3
sg9
F45.810000000000002
sg10
F0.93999999999999995
sg11
F2.02
ssS'PPG'
p760
(dp761
g4
Nsg5
F7.8099999999999996
sg6
F5.8499999999999996
sg7
F1.26
sg8
F1.6799999999999999
sg9
F83.640000000000001
sg10
F1.55
sg11
F1.79
ssS'MNST'
p762
(dp763
g4
Nsg5
F14.619999999999999
sg6
F23.359999999999999
sg7
Nsg8
F1.3100000000000001
sg9
Nsg10
F3.4399999999999999
sg11
F1.6699999999999999
ssS'NSC'
p764
(dp765
g4
Nsg5
F5.6600000000000001
sg6
F17.07
sg7
F3
sg8
F1.48
sg9
F83.010000000000005
sg10
F0.94999999999999996
sg11
F1.5900000000000001
ssS'PPL'
p766
(dp767
g4
Nsg5
F4.8600000000000003
sg6
F24.460000000000001
sg7
F2.4700000000000002
sg8
F0.53000000000000003
sg9
F199.28999999999999
sg10
F0.52000000000000002
sg11
F11.08
ssS'OKE'
p768
(dp769
g4
Nsg5
F5.0800000000000001
sg6
F3.6000000000000001
sg7
F1.3899999999999999
sg8
F1.2
sg9
F277.63
sg10
F0.5
sg11
F1.25
ssS'GOOG'
p770
(dp771
g4
Nsg5
F9.6699999999999999
sg6
F21.84
sg7
F37.93
sg8
F0.93999999999999995
sg9
F2.7200000000000002
sg10
F7.1299999999999999
sg11
F1.4099999999999999
ssS'IP'
p772
(dp773
g4
Nsg5
F3.04
sg6
F3.6299999999999999
sg7
F2.4900000000000002
sg8
F1.73
sg9
F245.47
sg10
F1.5800000000000001
sg11
F1.4299999999999999
ssS'HPQ'
p774
(dp775
g4
Nsg5
F9.1300000000000008
sg6
F4.9400000000000004
sg7
F2.98
sg8
F1.79
sg9
Nsg10
F0.97999999999999998
sg11
F2.0099999999999998
ssS'IR'
p776
(dp777
g4
Nsg5
F5.9299999999999997
sg6
F10.58
sg7
F1.46
sg8
F1.3600000000000001
sg9
F61.200000000000003
sg10
F1.53
sg11
F2.1200000000000001
ssS'URI'
p778
(dp779
g4
Nsg5
F7.7599999999999998
sg6
F10.039999999999999
sg7
F1.97
sg8
F2.8700000000000001
sg9
F419.22000000000003
sg10
F1
sg11
F0.95999999999999996
ssS'IRM'
p780
(dp781
g4
Nsg5
F5.0899999999999999
sg6
F2.71
sg7
Nsg8
F0.56000000000000005
sg9
F321.85000000000002
sg10
F0.84999999999999998
sg11
F0.91000000000000003
ssS'MTB'
p782
(dp783
g4
Nsg5
F1.1000000000000001
sg6
F26.420000000000002
sg7
F2.02
sg8
F0.93000000000000005
sg9
Nsg10
Nsg11
NssS'UTX'
p784
(dp785
g4
Nsg5
F5.6600000000000001
sg6
F9.1099999999999994
sg7
F6.2999999999999998
sg8
F1.0800000000000001
sg9
F83.109999999999999
sg10
F1.24
sg11
F2.7999999999999998
ssS'JCI'
p786
(dp787
g4
Nsg5
F4.4100000000000001
sg6
F-1.4199999999999999
sg7
Nsg8
F1.3999999999999999
sg9
F66.159999999999997
sg10
F1.23
sg11
F1.22
ssS'HPE'
p788
(dp789
g4
Nsg5
F3.3100000000000001
sg6
F4.6399999999999997
sg7
F3.1000000000000001
sg8
Nsg9
F47.899999999999999
sg10
F1.1499999999999999
sg11
F-1.8799999999999999
ssS'PWR'
p790
(dp791
g4
Nsg5
F4.3600000000000003
sg6
F2.79
sg7
Nsg8
F0.73999999999999999
sg9
F12.449999999999999
sg10
F1.96
sg11
F0.70999999999999996
ssS'CSCO'
p792
(dp793
g4
Nsg5
F6.6399999999999997
sg6
F20.609999999999999
sg7
F13.69
sg8
F1.3999999999999999
sg9
F49.659999999999997
sg10
F3.52
sg11
F1.28
ssS'WDC'
p794
(dp795
g4
Nsg5
F4.5300000000000002
sg6
F-1.3999999999999999
sg7
F2.8500000000000001
sg8
F1.1399999999999999
sg9
F118.65000000000001
sg10
F2.3900000000000001
sg11
F0.37
ssS'HBI'
p796
(dp797
g4
Nsg5
F8.9000000000000004
sg6
F8.5600000000000005
sg7
Nsg8
F0.34999999999999998
sg9
F432.12
sg10
F1.96
sg11
F1.1200000000000001
ssS'BA'
p798
(dp799
g4
Nsg5
F4.8200000000000003
sg6
F5.5199999999999996
sg7
F11.32
sg8
F1.22
sg9
Nsg10
F1.25
sg11
F1.1200000000000001
ssS'BK'
p800
(dp801
g4
Nsg5
F1.04
sg6
F23.75
sg7
F3.2200000000000002
sg8
F1.0700000000000001
sg9
Nsg10
Nsg11
F1.4099999999999999
ssS'DRI'
p802
(dp803
g4
Nsg5
F8.2899999999999991
sg6
F6.6799999999999997
sg7
Nsg8
F-0.12
sg9
F44.560000000000002
sg10
F0.62
sg11
F1.7
ssS'CCL'
p804
(dp805
g4
Nsg5
F4.7000000000000002
sg6
F16.469999999999999
sg7
Nsg8
F0.92000000000000004
sg9
F41.009999999999998
sg10
F0.20000000000000001
sg11
F1.1899999999999999
ssS'CCI'
p806
(dp807
g4
Nsg5
F2.8500000000000001
sg6
F10.699999999999999
sg7
F1.79
sg8
F0.23999999999999999
sg9
F183.24000000000001
sg10
F1.02
sg11
F3.73
ssS'TIF'
p808
(dp809
g4
Nsg5
F9.2300000000000004
sg6
F11.26
sg7
Nsg8
F1.8100000000000001
sg9
F34.840000000000003
sg10
F6.1699999999999999
sg11
F2.6299999999999999
ssS'ALLE'
p810
(dp811
g4
Nsg5
F12.460000000000001
sg6
F10.5
sg7
Nsg8
Nsg9
F936.76999999999998
sg10
F1.8600000000000001
sg11
F1.6399999999999999
ssS'FLIR'
p812
(dp813
g4
Nsg5
F7.4100000000000001
sg6
F12.32
sg7
Nsg8
F0.59999999999999998
sg9
F29.640000000000001
sg10
F3.4500000000000002
sg11
F1.1799999999999999
ssS'MYL'
p814
(dp815
g4
Nsg5
F4.9000000000000004
sg6
F4.5899999999999999
sg7
F2.4199999999999999
sg8
F1.47
sg9
F128.34
sg10
F1.5600000000000001
sg11
F0.98999999999999999
ssS'LYB'
p816
(dp817
g4
Nsg5
F12.960000000000001
sg6
F11.67
sg7
F4.9199999999999999
sg8
F0.95999999999999996
sg9
F139.50999999999999
sg10
F2.21
sg11
F-3.0499999999999998
ssS'KHC'
p818
(dp819
g4
Nsg5
F3.6699999999999999
sg6
F13.81
sg7
F4.8200000000000003
sg8
Nsg9
F56.399999999999999
sg10
F0.94999999999999996
sg11
NssS'HSIC'
p820
(dp821
g4
Nsg5
F7.7300000000000004
sg6
F4.5300000000000002
sg7
Nsg8
F1.1000000000000001
sg9
F39.799999999999997
sg10
F1.48
sg11
F2.46
ssS'D'
(dp822
g4
Nsg5
F3.8900000000000001
sg6
F18.289999999999999
sg7
F4.2999999999999998
sg8
F0.26000000000000001
sg9
F210.53999999999999
sg10
F0.55000000000000004
sg11
F5.5300000000000002
ssS'NAVI'
p823
(dp824
g4
Nsg5
F0.46999999999999997
sg6
F30.25
sg7
F1.3600000000000001
sg8
F2.4500000000000002
sg9
Nsg10
F31.73
sg11
F4.0599999999999996
ssS'PEP'
p825
(dp826
g4
Nsg5
F8.8699999999999992
sg6
F10.66
sg7
F9.9000000000000004
sg8
F0.69999999999999996
sg9
F330.88999999999999
sg10
F1.25
sg11
F3.5099999999999998
ssS'BF.B'
p827
(dp828
g4
Nsg5
Nsg6
Nsg7
Nsg8
Nsg9
Nsg10
Nsg11
NssS'WMT'
p829
(dp830
g4
Nsg5
F7.1299999999999999
sg6
F2.79
sg7
F30.719999999999999
sg8
F0.070000000000000007
sg9
F61.890000000000001
sg10
F0.77000000000000002
sg11
F2.9399999999999999
ssS'VZ'
p831
(dp832
g4
Nsg5
F6.7999999999999998
sg6
F9.9199999999999999
sg7
F16.899999999999999
sg8
F0.57999999999999996
sg9
F466.68000000000001
sg10
F1.02
sg11
F4.7400000000000002
ssS'T'
(dp833
g4
Nsg5
F3.9700000000000002
sg6
F7.7699999999999996
sg7
F40.659999999999997
sg8
F0.44
sg9
F109.54000000000001
sg10
F0.90000000000000002
sg11
F1.8100000000000001
ssS'WMB'
p834
(dp835
g4
Nsg5
F2.3599999999999999
sg6
F0.17999999999999999
sg7
F3.4900000000000002
sg8
F1.6399999999999999
sg9
F141.63999999999999
sg10
F1.3899999999999999
sg11
F3.1800000000000002
ssS'VRSN'
p836
(dp837
g4
Nsg5
F18.73
sg6
F39.130000000000003
sg7
Nsg8
F1.0600000000000001
sg9
Nsg10
F1.21
sg11
F2.9700000000000002
ssS'VRSK'
p838
(dp839
g4
Nsg5
F9.3800000000000008
sg6
F30.289999999999999
sg7
Nsg8
F0.69999999999999996
sg9
F165.09999999999999
sg10
F0.76000000000000001
sg11
F2.7200000000000002
ssS'CINF'
p840
(dp841
g4
Nsg5
F2.7200000000000002
sg6
F10.77
sg7
Nsg8
F0.83999999999999997
sg9
F11.6
sg10
F1.21
sg11
F81.439999999999998
ssS'NTRS'
p842
(dp843
g4
Nsg5
F0.89000000000000001
sg6
F20.91
sg7
F2.5899999999999999
sg8
F1.0800000000000001
sg9
Nsg10
Nsg11
F1.5900000000000001
ssS'CXO'
p844
(dp845
g4
Nsg5
F-0.58999999999999997
sg6
F10.720000000000001
sg7
F1.4199999999999999
sg8
F0.72999999999999998
sg9
F32.130000000000003
sg10
F1.74
sg11
F3.73
ssS'FLS'
p846
(dp847
g4
Nsg5
F4.25
sg6
F3.1200000000000001
sg7
Nsg8
F1.3500000000000001
sg9
F92.140000000000001
sg10
F2.0800000000000001
sg11
F1.7
ssS'FLR'
p848
(dp849
g4
Nsg5
F3.79
sg6
F1.22
sg7
Nsg8
F1.3400000000000001
sg9
F46.829999999999998
sg10
F1.51
sg11
F1.4199999999999999
ssS'REGN'
p850
(dp851
g4
Nsg5
F13.039999999999999
sg6
F19.34
sg7
F1.78
sg8
F1.6399999999999999
sg9
F14.539999999999999
sg10
F2.8100000000000001
sg11
F2.0499999999999998
ssS'HD'
p852
(dp853
g4
Nsg5
F19.129999999999999
sg6
F8.5299999999999994
sg7
F10.710000000000001
sg8
F1.0900000000000001
sg9
F578.91999999999996
sg10
F1.21
sg11
F1.7
ssS'LKQ'
p854
(dp855
g4
Nsg5
F6.8099999999999996
sg6
F5.4199999999999999
sg7
Nsg8
F1.0600000000000001
sg9
F84.019999999999996
sg10
F2.8599999999999999
sg11
F0.65000000000000002
ssS'LLY'
p856
(dp857
g4
Nsg5
F7.1600000000000001
sg6
F10.130000000000001
sg7
F5.4100000000000001
sg8
F0.17000000000000001
sg9
F72.659999999999997
sg10
F1.24
sg11
F1.5700000000000001
ssS'ROK'
p858
(dp859
g4
Nsg5
F9.6600000000000001
sg6
F12.880000000000001
sg7
F1.1599999999999999
sg8
F1.1799999999999999
sg9
F84.790000000000006
sg10
F2.1299999999999999
sg11
F2.8300000000000001
ssS'INTC'
p860
(dp861
g4
Nsg5
F9.0199999999999996
sg6
F18.57
sg7
F21.649999999999999
sg8
F1.0700000000000001
sg9
F38.520000000000003
sg10
F1.6899999999999999
sg11
F1.3999999999999999
ssS'BRK.B'
p862
(dp863
g4
Nsg5
Nsg6
Nsg7
Nsg8
Nsg9
Nsg10
Nsg11
NssS'NWS'
p864
(dp865
g4
Nsg5
Nsg6
Nsg7
Nsg8
F1.8200000000000001
sg9
Nsg10
Nsg11
NssS'DOV'
p866
(dp867
g4
Nsg5
F5.0499999999999998
sg6
F8.3300000000000001
sg7
Nsg8
F1.21
sg9
F91.980000000000004
sg10
F1.1899999999999999
sg11
F1.52
ssS'SCG'
p868
(dp869
g4
Nsg5
F3.9700000000000002
sg6
F13.960000000000001
sg7
F1.3400000000000001
sg8
F0.14000000000000001
sg9
F130.22999999999999
sg10
F0.63
sg11
F2.77
ssS'AME'
p870
(dp871
g4
Nsg5
F7.46
sg6
F13.24
sg7
Nsg8
F1.2
sg9
F70.930000000000007
sg10
F1.76
sg11
NssS'AMG'
p872
(dp873
g4
Nsg5
F5.2599999999999998
sg6
F22.399999999999999
sg7
F1.1200000000000001
sg8
F1.74
sg9
F39.710000000000001
sg10
Nsg11
F0.81000000000000005
ssS'REG'
p874
(dp875
g4
Nsg5
F2.0800000000000001
sg6
F13.130000000000001
sg7
Nsg8
F0.48999999999999999
sg9
F50.380000000000003
sg10
F0.78000000000000003
sg11
F6.0999999999999996
ssS'MNK'
p876
(dp877
g4
Nsg5
Nsg6
F-10.01
sg7
Nsg8
F1.6799999999999999
sg9
F116.23999999999999
sg10
F1.3999999999999999
sg11
F1.0600000000000001
ssS'COO'
p878
(dp879
g4
Nsg5
F5.9500000000000002
sg6
F16.02
sg7
Nsg8
F0.69999999999999996
sg9
F47.18
sg10
F2.79
sg11
F1.6499999999999999
ssS'LLL'
p880
(dp881
g4
Nsg5
F5.4000000000000004
sg6
F5.9800000000000004
sg7
F1.0700000000000001
sg8
F1.3899999999999999
sg9
F69.549999999999997
sg10
F1.74
sg11
F2.9199999999999999
ssS'NWL'
p882
(dp883
g4
Nsg5
F5.1399999999999997
sg6
F7.4000000000000004
sg7
F1.8
sg8
F1.1899999999999999
sg9
F92.969999999999999
sg10
F1.5
sg11
F1.6499999999999999
ssS'AMP'
p884
(dp885
g4
Nsg5
F1.1299999999999999
sg6
F11.390000000000001
sg7
F1.3600000000000001
sg8
F1.9199999999999999
sg9
F95.010000000000005
sg10
F2.6299999999999999
sg11
F0.88
ssS'TMO'
p886
(dp887
g4
Nsg5
F4.0499999999999998
sg6
F11.58
sg7
F3.1800000000000002
sg8
F0.97999999999999998
sg9
F78.859999999999999
sg10
F1.3700000000000001
sg11
F1.74
ssS'AMT'
p888
(dp889
g4
Nsg5
F4.2199999999999998
sg6
F16.32
sg7
F2.8199999999999998
sg8
F1
sg9
F221.84999999999999
sg10
F0.53000000000000003
sg11
F1.9299999999999999
ssS'LRCX'
p890
(dp891
g4
Nsg5
F9.5500000000000007
sg6
F19.82
sg7
F1.72
sg8
F1.6000000000000001
sg9
F40.030000000000001
sg10
F3.2200000000000002
sg11
F0.59999999999999998
ssS'O'
(dp892
g4
Nsg5
F2.7000000000000002
sg6
F29.469999999999999
sg7
Nsg8
F0.17999999999999999
sg9
F72.739999999999995
sg10
F0.64000000000000001
sg11
F7.0800000000000001
ssS'YHOO'
p893
(dp894
g4
Nsg5
Nsg6
Nsg7
Nsg8
Nsg9
Nsg10
Nsg11
NssS'BDX'
p895
(dp896
g4
Nsg5
F5.4000000000000004
sg6
F10.67
sg7
F2.5800000000000001
sg8
F0.97999999999999998
sg9
F129.47
sg10
F1.22
sg11
F2.0800000000000001
ssS'TRV'
p897
(dp898
g4
Nsg5
F2.5499999999999998
sg6
F10.59
sg7
F4.1299999999999999
sg8
F1.1899999999999999
sg9
F27.27
sg10
F0.38
sg11
F14.630000000000001
ssS'MPC'
p899
(dp900
g4
Nsg5
F3.8999999999999999
sg6
F2.02
sg7
F4.7699999999999996
sg8
F1.6399999999999999
sg9
F60.579999999999998
sg10
F1.6100000000000001
sg11
F0.80000000000000004
ssS'ABBV'
p901
(dp902
g4
Nsg5
F10.32
sg6
F24.07
sg7
F7.0199999999999996
sg8
F1.4299999999999999
sg9
F746.38
sg10
F1.76
sg11
F0.91000000000000003
ssS'MDLZ'
p903
(dp904
g4
Nsg5
F3.46
sg6
F6.7000000000000002
sg7
F2.7400000000000002
sg8
F0.73999999999999999
sg9
F71.590000000000003
sg10
F0.56000000000000005
sg11
F1.98
ssS'UA'
p905
(dp906
g4
Nsg5
F7.1799999999999997
sg6
F4.8099999999999996
sg7
Nsg8
Nsg9
F42.630000000000003
sg10
F3.04
sg11
F9.4299999999999997
ssS'AVB'
p907
(dp908
g4
Nsg5
F2.7200000000000002
sg6
F50.439999999999998
sg7
F1.1599999999999999
sg8
F0.53000000000000003
sg9
F68.180000000000007
sg10
F1.0800000000000001
sg11
F7.96
ssS'NEM'
p909
(dp910
g4
Nsg5
F4.0700000000000003
sg6
F-9.1600000000000001
sg7
F2.6299999999999999
sg8
F0.28999999999999998
sg9
F38.780000000000001
sg10
F3.0899999999999999
sg11
F26.050000000000001
ssS'NEE'
p911
(dp912
g4
Nsg5
F3.1099999999999999
sg6
F23.579999999999998
sg7
F6.1500000000000004
sg8
F0.33000000000000002
sg9
F127.94
sg10
F0.59999999999999998
sg11
F2.8199999999999998
ssS'ACN'
p913
(dp914
g4
Nsg5
F15.630000000000001
sg6
F10.48
sg7
F5
sg8
F1.0800000000000001
sg9
F0.31
sg10
F1.22
sg11
F2.2400000000000002
ssS'NI'
p915
(dp916
g4
Nsg5
F3.0899999999999999
sg6
F7.6500000000000004
sg7
Nsg8
F0.22
sg9
F189.59999999999999
sg10
F0.40000000000000002
sg11
F2.8700000000000001
ssS'TEL'
p917
(dp918
g4
Nsg5
F7.3899999999999997
sg6
F16.399999999999999
sg7
F2.2999999999999998
sg8
F1.1399999999999999
sg9
F45.149999999999999
sg10
F1.3100000000000001
sg11
F1.96
ssS'RRC'
p919
(dp920
g4
Nsg5
F-1.23
sg6
F-14.9
sg7
Nsg8
F0.93000000000000005
sg9
F66.969999999999999
sg10
F0.46999999999999997
sg11
F1.6299999999999999
ssS'FAST'
p921
(dp922
g4
Nsg5
F18.559999999999999
sg6
F12.609999999999999
sg7
Nsg8
F0.80000000000000004
sg9
F18.420000000000002
sg10
F4.9000000000000004
sg11
F2.6200000000000001
ssS'NBL'
p923
(dp924
g4
Nsg5
F-3.6600000000000001
sg6
F-18.390000000000001
sg7
F1.6399999999999999
sg8
F0.93000000000000005
sg9
F73.480000000000004
sg10
F0.96999999999999997
sg11
F-64.549999999999997
ssS'HP'
p925
(dp926
g4
Nsg5
F-1.4399999999999999
sg6
F-12.09
sg7
Nsg8
F1.2
sg9
F11.33
sg10
F4.5300000000000002
sg11
F-3.3799999999999999
ssS'LLTC'
p927
(dp928
g4
Nsg5
Nsg6
Nsg7
Nsg8
Nsg9
Nsg10
Nsg11
NssS'ADS'
p929
(dp930
g4
Nsg5
F2.79
sg6
F6.8799999999999999
sg7
F2.2999999999999998
sg8
F1.6299999999999999
sg9
Nsg10
F2.0899999999999999
sg11
F1.1299999999999999
ssS'ADP'
p931
(dp932
g4
Nsg5
F3.2400000000000002
sg6
F14.33
sg7
F2.29
sg8
F0.80000000000000004
sg9
F48.810000000000002
sg10
F1.0900000000000001
sg11
F2.4199999999999999
ssS'DNB'
p933
(dp934
g4
Nsg5
F11.31
sg6
F4.8499999999999996
sg7
Nsg8
F1.3400000000000001
sg9
Nsg10
F0.85999999999999999
sg11
F3.6800000000000002
ssS'GILD'
p935
(dp936
g4
Nsg5
F20.23
sg6
F43.420000000000002
sg7
F15.460000000000001
sg8
F0.95999999999999996
sg9
F125.83
sg10
F2.5899999999999999
sg11
F-1.25
ssS'SJM'
p937
(dp938
g4
Nsg5
F4.9299999999999997
sg6
F8.0099999999999998
sg7
F1.0600000000000001
sg8
F0.40999999999999998
sg9
F78.810000000000002
sg10
F0.90000000000000002
sg11
F3.9700000000000002
ssS'MCK'
p939
(dp940
g4
Nsg5
F3.6899999999999999
sg6
F2.5499999999999998
sg7
F4.7400000000000002
sg8
F1.23
sg9
F67.819999999999993
sg10
F1.04
sg11
F3.4500000000000002
ssS'ADM'
p941
(dp942
g4
Nsg5
F2.6499999999999999
sg6
F2.2000000000000002
sg7
F1.8600000000000001
sg8
F1.05
sg9
F42.009999999999998
sg10
F1.51
sg11
F-6.1900000000000004
ssS'ADI'
p943
(dp944
g4
Nsg5
F4.5899999999999999
sg6
F20.899999999999999
sg7
F1.5800000000000001
sg8
F1.3899999999999999
sg9
F129.37
sg10
F1.3799999999999999
sg11
F1.1200000000000001
ssS'VIAB'
p945
(dp946
g4
Nsg5
F7.2599999999999998
sg6
F9.3200000000000003
sg7
F1.49
sg8
F1.7
sg9
F244.61000000000001
sg10
F1.4399999999999999
sg11
F1.22
ssS'LEG'
p947
(dp948
g4
Nsg5
F9.6300000000000008
sg6
F10.140000000000001
sg7
Nsg8
F1.04
sg9
F105.43000000000001
sg10
F1.97
sg11
F7.6699999999999999
ssS'XEL'
p949
(dp950
g4
Nsg5
F3.4399999999999999
sg6
F9.9399999999999995
sg7
F2.9700000000000002
sg8
F0.089999999999999997
sg9
F136.00999999999999
sg10
F0.70999999999999996
sg11
NssS'LEN'
p951
(dp952
g4
Nsg5
Nsg6
F6.7800000000000002
sg7
Nsg8
F1.4099999999999999
sg9
F95.989999999999995
sg10
Nsg11
NssS'EBAY'
p953
(dp954
g4
Nsg5
F6.3499999999999996
sg6
F86.310000000000002
sg7
F2.77
sg8
F1.6200000000000001
sg9
F77.329999999999998
sg10
F1.9199999999999999
sg11
F2.2400000000000002
ssS'MET'
p955
(dp956
g4
Nsg5
F-0.070000000000000007
sg6
F-0.93999999999999995
sg7
F15.01
sg8
F1.4199999999999999
sg9
F89.069999999999993
sg10
F1.04
sg11
NssS'USB'
p957
(dp958
g4
Nsg5
F1.3700000000000001
sg6
F30.43
sg7
F7.2599999999999998
sg8
F0.93000000000000005
sg9
Nsg10
Nsg11
F2.46
ssS'AZO'
p959
(dp960
g4
Nsg5
F14.83
sg6
F11.82
sg7
F1.49
sg8
F0.56000000000000005
sg9
Nsg10
F0.93999999999999995
sg11
F1.1399999999999999
ssS'MSI'
p961
(dp962
g4
Nsg5
F9.3200000000000003
sg6
F10.119999999999999
sg7
F1.29
sg8
F0.22
sg9
Nsg10
F1.29
sg11
F1.2
ssS'TWX'
p963
(dp964
g4
Nsg5
F7.8300000000000001
sg6
F13.9
sg7
F5.3700000000000001
sg8
F0.84999999999999998
sg9
F91.170000000000002
sg10
F1.5800000000000001
sg11
F1.51
ssS'PCAR'
p965
(dp966
g4
Nsg5
F5.54
sg6
F8.4100000000000001
sg7
F2.1200000000000001
sg8
F1.1699999999999999
sg9
F118.87
sg10
F5
sg11
F2.48
ssS'TXN'
p967
(dp968
g4
Nsg5
F19.949999999999999
sg6
F28.199999999999999
sg7
F4.7599999999999998
sg8
F1.26
sg9
F31.559999999999999
sg10
F4.3899999999999997
sg11
F1.9199999999999999
ssS'DAL'
p969
(dp970
g4
Nsg5
F7.1699999999999999
sg6
F10.19
sg7
F5.3899999999999997
sg8
F1.0700000000000001
sg9
F71.319999999999993
sg10
F0.42999999999999999
sg11
NssS'CL'
p971
(dp972
g4
Nsg5
F20
sg6
F16.309999999999999
sg7
F3.2200000000000002
sg8
F0.75
sg9
Nsg10
F1.21
sg11
F2.8700000000000001
ssS'ORCL'
p973
(dp974
g4
Nsg5
F6.71
sg6
F24.739999999999998
sg7
F14.130000000000001
sg8
F1.1200000000000001
sg9
F106.75
sg10
F3.0800000000000001
sg11
F1.8200000000000001
ssS'TXT'
p975
(dp976
g4
Nsg5
F4.3899999999999997
sg6
F6.6699999999999999
sg7
Nsg8
F1.54
sg9
F73.719999999999999
sg10
F2.0299999999999998
sg11
F2.3900000000000001
ssS'PXD'
p977
(dp978
g4
Nsg5
Nsg6
Nsg7
Nsg8
Nsg9
Nsg10
Nsg11
NssS'HOG'
p979
(dp980
g4
Nsg5
F5.8399999999999999
sg6
F10.93
sg7
F1.29
sg8
F0.96999999999999997
sg9
F349.70999999999998
sg10
F1.6599999999999999
sg11
F1.5600000000000001
ssS'ESS'
p981
(dp982
g4
Nsg5
F2.3900000000000001
sg6
F37.82
sg7
Nsg8
F0.59999999999999998
sg9
F87.069999999999993
sg10
F0.38
sg11
F6.5999999999999996
ssS'PKI'
p983
(dp984
g4
Nsg5
F4.54
sg6
F10.58
sg7
Nsg8
F1
sg9
F47.75
sg10
F1.8600000000000001
sg11
F2.4199999999999999
ssS'CNP'
p985
(dp986
g4
Nsg5
F2.8599999999999999
sg6
F5.6799999999999997
sg7
F1.6100000000000001
sg8
F0.56999999999999995
sg9
F245.38
sg10
F1.1000000000000001
sg11
F3.5600000000000001
ssS'HON'
p987
(dp988
g4
Nsg5
F8.0500000000000007
sg6
F12.52
sg7
F6.1200000000000001
sg8
F1
sg9
F77.480000000000004
sg10
F1.3700000000000001
sg11
F2.5499999999999998
ssS'ICE'
p989
(dp990
g4
Nsg5
F1.8
sg6
F34.490000000000002
sg7
F2.1600000000000001
sg8
F0.58999999999999997
sg9
F39.479999999999997
sg10
F0.97999999999999998
sg11
F1.6200000000000001
ssS'AN'
p991
(dp992
g4
Nsg5
F5.0499999999999998
sg6
F2
sg7
Nsg8
F1.0800000000000001
sg9
F263.51999999999998
sg10
F0.81999999999999995
sg11
F1.9099999999999999
ssS'CSRA'
p993
(dp994
g4
Nsg5
F9.1400000000000006
sg6
F6.0899999999999999
sg7
Nsg8
Nsg9
F779.66999999999996
sg10
F1.01
sg11
F1.6299999999999999
ssS'CNC'
p995
(dp996
g4
Nsg5
F5.6100000000000003
sg6
F1.6899999999999999
sg7
F2.8999999999999999
sg8
F1.02
sg9
F75.840000000000003
sg10
F1.02
sg11
F1.3200000000000001
ssS'TROW'
p997
(dp998
g4
Nsg5
F18.640000000000001
sg6
F29.859999999999999
sg7
Nsg8
F1.1499999999999999
sg9
Nsg10
F2.7599999999999998
sg11
F1.48
ssS'ISRG'
p999
(dp1000
g4
Nsg5
F12.220000000000001
sg6
F27.989999999999998
sg7
F1.0600000000000001
sg8
F0.80000000000000004
sg9
Nsg10
F3.8799999999999999
sg11
F3.5800000000000001
ssS'PFE'
p1001
(dp1002
g4
Nsg5
F5.2000000000000002
sg6
F13.880000000000001
sg7
F15.68
sg8
F1.0700000000000001
sg9
F75.299999999999997
sg10
F1.4399999999999999
sg11
F2.3500000000000001
ssS'NKE'
p1003
(dp1004
g4
Nsg5
F13.289999999999999
sg6
F12.34
sg7
Nsg8
F0.40000000000000002
sg9
F30.640000000000001
sg10
F2.9300000000000002
sg11
F2.3700000000000001
ssS'PFG'
p1005
(dp1006
g4
Nsg5
F0.47999999999999998
sg6
F10.460000000000001
sg7
F3.4900000000000002
sg8
F1.51
sg9
F30.27
sg10
F2.52
sg11
F1.6299999999999999
ssS'SPGI'
p1007
(dp1008
g4
Nsg5
F17.960000000000001
sg6
F38.299999999999997
sg7
F1.6299999999999999
sg8
F1.3899999999999999
sg9
F185.28999999999999
sg10
F1.48
sg11
F1.9299999999999999
ss.